
EP23.elf:     file format elf32-littlearm

Sections:
Idx Name          Size      VMA       LMA       File off  Algn
  0 .isr_vector   000000bc  08000000  08000000  00001000  2**0
                  CONTENTS, ALLOC, LOAD, READONLY, DATA
  1 .text         00002a18  080000bc  080000bc  000010bc  2**2
                  CONTENTS, ALLOC, LOAD, READONLY, CODE
  2 .rodata       00000088  08002ad4  08002ad4  00003ad4  2**2
                  CONTENTS, ALLOC, LOAD, READONLY, DATA
  3 .ARM.extab    00000000  08002b5c  08002b5c  0000400c  2**0
                  CONTENTS, READONLY
  4 .ARM          00000008  08002b5c  08002b5c  00003b5c  2**2
                  CONTENTS, ALLOC, LOAD, READONLY, DATA
  5 .preinit_array 00000000  08002b64  08002b64  0000400c  2**0
                  CONTENTS, ALLOC, LOAD, DATA
  6 .init_array   00000004  08002b64  08002b64  00003b64  2**2
                  CONTENTS, ALLOC, LOAD, READONLY, DATA
  7 .fini_array   00000004  08002b68  08002b68  00003b68  2**2
                  CONTENTS, ALLOC, LOAD, READONLY, DATA
  8 .data         0000000c  20000000  08002b6c  00004000  2**2
                  CONTENTS, ALLOC, LOAD, DATA
  9 .bss          000000b4  2000000c  08002b78  0000400c  2**2
                  ALLOC
 10 ._user_heap_stack 00000600  200000c0  08002b78  000040c0  2**0
                  ALLOC
 11 .ARM.attributes 00000028  00000000  00000000  0000400c  2**0
                  CONTENTS, READONLY
 12 .debug_info   0000ad5c  00000000  00000000  00004034  2**0
                  CONTENTS, READONLY, DEBUGGING, OCTETS
 13 .debug_abbrev 00001d9e  00000000  00000000  0000ed90  2**0
                  CONTENTS, READONLY, DEBUGGING, OCTETS
 14 .debug_aranges 000008d8  00000000  00000000  00010b30  2**3
                  CONTENTS, READONLY, DEBUGGING, OCTETS
 15 .debug_rnglists 000006bd  00000000  00000000  00011408  2**0
                  CONTENTS, READONLY, DEBUGGING, OCTETS
 16 .debug_macro  0001734d  00000000  00000000  00011ac5  2**0
                  CONTENTS, READONLY, DEBUGGING, OCTETS
 17 .debug_line   0000c5b2  00000000  00000000  00028e12  2**0
                  CONTENTS, READONLY, DEBUGGING, OCTETS
 18 .debug_str    00092ce4  00000000  00000000  000353c4  2**0
                  CONTENTS, READONLY, DEBUGGING, OCTETS
 19 .comment      00000043  00000000  00000000  000c80a8  2**0
                  CONTENTS, READONLY
 20 .debug_frame  00001ddc  00000000  00000000  000c80ec  2**2
                  CONTENTS, READONLY, DEBUGGING, OCTETS
 21 .debug_line_str 00000052  00000000  00000000  000c9ec8  2**0
                  CONTENTS, READONLY, DEBUGGING, OCTETS

Disassembly of section .text:

080000bc <__do_global_dtors_aux>:
 80000bc:	b510      	push	{r4, lr}
 80000be:	4c06      	ldr	r4, [pc, #24]	@ (80000d8 <__do_global_dtors_aux+0x1c>)
 80000c0:	7823      	ldrb	r3, [r4, #0]
 80000c2:	2b00      	cmp	r3, #0
 80000c4:	d107      	bne.n	80000d6 <__do_global_dtors_aux+0x1a>
 80000c6:	4b05      	ldr	r3, [pc, #20]	@ (80000dc <__do_global_dtors_aux+0x20>)
 80000c8:	2b00      	cmp	r3, #0
 80000ca:	d002      	beq.n	80000d2 <__do_global_dtors_aux+0x16>
 80000cc:	4804      	ldr	r0, [pc, #16]	@ (80000e0 <__do_global_dtors_aux+0x24>)
 80000ce:	e000      	b.n	80000d2 <__do_global_dtors_aux+0x16>
 80000d0:	bf00      	nop
 80000d2:	2301      	movs	r3, #1
 80000d4:	7023      	strb	r3, [r4, #0]
 80000d6:	bd10      	pop	{r4, pc}
 80000d8:	2000000c 	.word	0x2000000c
 80000dc:	00000000 	.word	0x00000000
 80000e0:	08002abc 	.word	0x08002abc

080000e4 <frame_dummy>:
 80000e4:	4b04      	ldr	r3, [pc, #16]	@ (80000f8 <frame_dummy+0x14>)
 80000e6:	b510      	push	{r4, lr}
 80000e8:	2b00      	cmp	r3, #0
 80000ea:	d003      	beq.n	80000f4 <frame_dummy+0x10>
 80000ec:	4903      	ldr	r1, [pc, #12]	@ (80000fc <frame_dummy+0x18>)
 80000ee:	4804      	ldr	r0, [pc, #16]	@ (8000100 <frame_dummy+0x1c>)
 80000f0:	e000      	b.n	80000f4 <frame_dummy+0x10>
 80000f2:	bf00      	nop
 80000f4:	bd10      	pop	{r4, pc}
 80000f6:	46c0      	nop			@ (mov r8, r8)
 80000f8:	00000000 	.word	0x00000000
 80000fc:	20000010 	.word	0x20000010
 8000100:	08002abc 	.word	0x08002abc

08000104 <__udivsi3>:
 8000104:	2200      	movs	r2, #0
 8000106:	0843      	lsrs	r3, r0, #1
 8000108:	428b      	cmp	r3, r1
 800010a:	d374      	bcc.n	80001f6 <__udivsi3+0xf2>
 800010c:	0903      	lsrs	r3, r0, #4
 800010e:	428b      	cmp	r3, r1
 8000110:	d35f      	bcc.n	80001d2 <__udivsi3+0xce>
 8000112:	0a03      	lsrs	r3, r0, #8
 8000114:	428b      	cmp	r3, r1
 8000116:	d344      	bcc.n	80001a2 <__udivsi3+0x9e>
 8000118:	0b03      	lsrs	r3, r0, #12
 800011a:	428b      	cmp	r3, r1
 800011c:	d328      	bcc.n	8000170 <__udivsi3+0x6c>
 800011e:	0c03      	lsrs	r3, r0, #16
 8000120:	428b      	cmp	r3, r1
 8000122:	d30d      	bcc.n	8000140 <__udivsi3+0x3c>
 8000124:	22ff      	movs	r2, #255	@ 0xff
 8000126:	0209      	lsls	r1, r1, #8
 8000128:	ba12      	rev	r2, r2
 800012a:	0c03      	lsrs	r3, r0, #16
 800012c:	428b      	cmp	r3, r1
 800012e:	d302      	bcc.n	8000136 <__udivsi3+0x32>
 8000130:	1212      	asrs	r2, r2, #8
 8000132:	0209      	lsls	r1, r1, #8
 8000134:	d065      	beq.n	8000202 <__udivsi3+0xfe>
 8000136:	0b03      	lsrs	r3, r0, #12
 8000138:	428b      	cmp	r3, r1
 800013a:	d319      	bcc.n	8000170 <__udivsi3+0x6c>
 800013c:	e000      	b.n	8000140 <__udivsi3+0x3c>
 800013e:	0a09      	lsrs	r1, r1, #8
 8000140:	0bc3      	lsrs	r3, r0, #15
 8000142:	428b      	cmp	r3, r1
 8000144:	d301      	bcc.n	800014a <__udivsi3+0x46>
 8000146:	03cb      	lsls	r3, r1, #15
 8000148:	1ac0      	subs	r0, r0, r3
 800014a:	4152      	adcs	r2, r2
 800014c:	0b83      	lsrs	r3, r0, #14
 800014e:	428b      	cmp	r3, r1
 8000150:	d301      	bcc.n	8000156 <__udivsi3+0x52>
 8000152:	038b      	lsls	r3, r1, #14
 8000154:	1ac0      	subs	r0, r0, r3
 8000156:	4152      	adcs	r2, r2
 8000158:	0b43      	lsrs	r3, r0, #13
 800015a:	428b      	cmp	r3, r1
 800015c:	d301      	bcc.n	8000162 <__udivsi3+0x5e>
 800015e:	034b      	lsls	r3, r1, #13
 8000160:	1ac0      	subs	r0, r0, r3
 8000162:	4152      	adcs	r2, r2
 8000164:	0b03      	lsrs	r3, r0, #12
 8000166:	428b      	cmp	r3, r1
 8000168:	d301      	bcc.n	800016e <__udivsi3+0x6a>
 800016a:	030b      	lsls	r3, r1, #12
 800016c:	1ac0      	subs	r0, r0, r3
 800016e:	4152      	adcs	r2, r2
 8000170:	0ac3      	lsrs	r3, r0, #11
 8000172:	428b      	cmp	r3, r1
 8000174:	d301      	bcc.n	800017a <__udivsi3+0x76>
 8000176:	02cb      	lsls	r3, r1, #11
 8000178:	1ac0      	subs	r0, r0, r3
 800017a:	4152      	adcs	r2, r2
 800017c:	0a83      	lsrs	r3, r0, #10
 800017e:	428b      	cmp	r3, r1
 8000180:	d301      	bcc.n	8000186 <__udivsi3+0x82>
 8000182:	028b      	lsls	r3, r1, #10
 8000184:	1ac0      	subs	r0, r0, r3
 8000186:	4152      	adcs	r2, r2
 8000188:	0a43      	lsrs	r3, r0, #9
 800018a:	428b      	cmp	r3, r1
 800018c:	d301      	bcc.n	8000192 <__udivsi3+0x8e>
 800018e:	024b      	lsls	r3, r1, #9
 8000190:	1ac0      	subs	r0, r0, r3
 8000192:	4152      	adcs	r2, r2
 8000194:	0a03      	lsrs	r3, r0, #8
 8000196:	428b      	cmp	r3, r1
 8000198:	d301      	bcc.n	800019e <__udivsi3+0x9a>
 800019a:	020b      	lsls	r3, r1, #8
 800019c:	1ac0      	subs	r0, r0, r3
 800019e:	4152      	adcs	r2, r2
 80001a0:	d2cd      	bcs.n	800013e <__udivsi3+0x3a>
 80001a2:	09c3      	lsrs	r3, r0, #7
 80001a4:	428b      	cmp	r3, r1
 80001a6:	d301      	bcc.n	80001ac <__udivsi3+0xa8>
 80001a8:	01cb      	lsls	r3, r1, #7
 80001aa:	1ac0      	subs	r0, r0, r3
 80001ac:	4152      	adcs	r2, r2
 80001ae:	0983      	lsrs	r3, r0, #6
 80001b0:	428b      	cmp	r3, r1
 80001b2:	d301      	bcc.n	80001b8 <__udivsi3+0xb4>
 80001b4:	018b      	lsls	r3, r1, #6
 80001b6:	1ac0      	subs	r0, r0, r3
 80001b8:	4152      	adcs	r2, r2
 80001ba:	0943      	lsrs	r3, r0, #5
 80001bc:	428b      	cmp	r3, r1
 80001be:	d301      	bcc.n	80001c4 <__udivsi3+0xc0>
 80001c0:	014b      	lsls	r3, r1, #5
 80001c2:	1ac0      	subs	r0, r0, r3
 80001c4:	4152      	adcs	r2, r2
 80001c6:	0903      	lsrs	r3, r0, #4
 80001c8:	428b      	cmp	r3, r1
 80001ca:	d301      	bcc.n	80001d0 <__udivsi3+0xcc>
 80001cc:	010b      	lsls	r3, r1, #4
 80001ce:	1ac0      	subs	r0, r0, r3
 80001d0:	4152      	adcs	r2, r2
 80001d2:	08c3      	lsrs	r3, r0, #3
 80001d4:	428b      	cmp	r3, r1
 80001d6:	d301      	bcc.n	80001dc <__udivsi3+0xd8>
 80001d8:	00cb      	lsls	r3, r1, #3
 80001da:	1ac0      	subs	r0, r0, r3
 80001dc:	4152      	adcs	r2, r2
 80001de:	0883      	lsrs	r3, r0, #2
 80001e0:	428b      	cmp	r3, r1
 80001e2:	d301      	bcc.n	80001e8 <__udivsi3+0xe4>
 80001e4:	008b      	lsls	r3, r1, #2
 80001e6:	1ac0      	subs	r0, r0, r3
 80001e8:	4152      	adcs	r2, r2
 80001ea:	0843      	lsrs	r3, r0, #1
 80001ec:	428b      	cmp	r3, r1
 80001ee:	d301      	bcc.n	80001f4 <__udivsi3+0xf0>
 80001f0:	004b      	lsls	r3, r1, #1
 80001f2:	1ac0      	subs	r0, r0, r3
 80001f4:	4152      	adcs	r2, r2
 80001f6:	1a41      	subs	r1, r0, r1
 80001f8:	d200      	bcs.n	80001fc <__udivsi3+0xf8>
 80001fa:	4601      	mov	r1, r0
 80001fc:	4152      	adcs	r2, r2
 80001fe:	4610      	mov	r0, r2
 8000200:	4770      	bx	lr
 8000202:	e7ff      	b.n	8000204 <__udivsi3+0x100>
 8000204:	b501      	push	{r0, lr}
 8000206:	2000      	movs	r0, #0
 8000208:	f000 f8f0 	bl	80003ec <__aeabi_idiv0>
 800020c:	bd02      	pop	{r1, pc}
 800020e:	46c0      	nop			@ (mov r8, r8)

08000210 <__aeabi_uidivmod>:
 8000210:	2900      	cmp	r1, #0
 8000212:	d0f7      	beq.n	8000204 <__udivsi3+0x100>
 8000214:	e776      	b.n	8000104 <__udivsi3>
 8000216:	4770      	bx	lr

08000218 <__divsi3>:
 8000218:	4603      	mov	r3, r0
 800021a:	430b      	orrs	r3, r1
 800021c:	d47f      	bmi.n	800031e <__divsi3+0x106>
 800021e:	2200      	movs	r2, #0
 8000220:	0843      	lsrs	r3, r0, #1
 8000222:	428b      	cmp	r3, r1
 8000224:	d374      	bcc.n	8000310 <__divsi3+0xf8>
 8000226:	0903      	lsrs	r3, r0, #4
 8000228:	428b      	cmp	r3, r1
 800022a:	d35f      	bcc.n	80002ec <__divsi3+0xd4>
 800022c:	0a03      	lsrs	r3, r0, #8
 800022e:	428b      	cmp	r3, r1
 8000230:	d344      	bcc.n	80002bc <__divsi3+0xa4>
 8000232:	0b03      	lsrs	r3, r0, #12
 8000234:	428b      	cmp	r3, r1
 8000236:	d328      	bcc.n	800028a <__divsi3+0x72>
 8000238:	0c03      	lsrs	r3, r0, #16
 800023a:	428b      	cmp	r3, r1
 800023c:	d30d      	bcc.n	800025a <__divsi3+0x42>
 800023e:	22ff      	movs	r2, #255	@ 0xff
 8000240:	0209      	lsls	r1, r1, #8
 8000242:	ba12      	rev	r2, r2
 8000244:	0c03      	lsrs	r3, r0, #16
 8000246:	428b      	cmp	r3, r1
 8000248:	d302      	bcc.n	8000250 <__divsi3+0x38>
 800024a:	1212      	asrs	r2, r2, #8
 800024c:	0209      	lsls	r1, r1, #8
 800024e:	d065      	beq.n	800031c <__divsi3+0x104>
 8000250:	0b03      	lsrs	r3, r0, #12
 8000252:	428b      	cmp	r3, r1
 8000254:	d319      	bcc.n	800028a <__divsi3+0x72>
 8000256:	e000      	b.n	800025a <__divsi3+0x42>
 8000258:	0a09      	lsrs	r1, r1, #8
 800025a:	0bc3      	lsrs	r3, r0, #15
 800025c:	428b      	cmp	r3, r1
 800025e:	d301      	bcc.n	8000264 <__divsi3+0x4c>
 8000260:	03cb      	lsls	r3, r1, #15
 8000262:	1ac0      	subs	r0, r0, r3
 8000264:	4152      	adcs	r2, r2
 8000266:	0b83      	lsrs	r3, r0, #14
 8000268:	428b      	cmp	r3, r1
 800026a:	d301      	bcc.n	8000270 <__divsi3+0x58>
 800026c:	038b      	lsls	r3, r1, #14
 800026e:	1ac0      	subs	r0, r0, r3
 8000270:	4152      	adcs	r2, r2
 8000272:	0b43      	lsrs	r3, r0, #13
 8000274:	428b      	cmp	r3, r1
 8000276:	d301      	bcc.n	800027c <__divsi3+0x64>
 8000278:	034b      	lsls	r3, r1, #13
 800027a:	1ac0      	subs	r0, r0, r3
 800027c:	4152      	adcs	r2, r2
 800027e:	0b03      	lsrs	r3, r0, #12
 8000280:	428b      	cmp	r3, r1
 8000282:	d301      	bcc.n	8000288 <__divsi3+0x70>
 8000284:	030b      	lsls	r3, r1, #12
 8000286:	1ac0      	subs	r0, r0, r3
 8000288:	4152      	adcs	r2, r2
 800028a:	0ac3      	lsrs	r3, r0, #11
 800028c:	428b      	cmp	r3, r1
 800028e:	d301      	bcc.n	8000294 <__divsi3+0x7c>
 8000290:	02cb      	lsls	r3, r1, #11
 8000292:	1ac0      	subs	r0, r0, r3
 8000294:	4152      	adcs	r2, r2
 8000296:	0a83      	lsrs	r3, r0, #10
 8000298:	428b      	cmp	r3, r1
 800029a:	d301      	bcc.n	80002a0 <__divsi3+0x88>
 800029c:	028b      	lsls	r3, r1, #10
 800029e:	1ac0      	subs	r0, r0, r3
 80002a0:	4152      	adcs	r2, r2
 80002a2:	0a43      	lsrs	r3, r0, #9
 80002a4:	428b      	cmp	r3, r1
 80002a6:	d301      	bcc.n	80002ac <__divsi3+0x94>
 80002a8:	024b      	lsls	r3, r1, #9
 80002aa:	1ac0      	subs	r0, r0, r3
 80002ac:	4152      	adcs	r2, r2
 80002ae:	0a03      	lsrs	r3, r0, #8
 80002b0:	428b      	cmp	r3, r1
 80002b2:	d301      	bcc.n	80002b8 <__divsi3+0xa0>
 80002b4:	020b      	lsls	r3, r1, #8
 80002b6:	1ac0      	subs	r0, r0, r3
 80002b8:	4152      	adcs	r2, r2
 80002ba:	d2cd      	bcs.n	8000258 <__divsi3+0x40>
 80002bc:	09c3      	lsrs	r3, r0, #7
 80002be:	428b      	cmp	r3, r1
 80002c0:	d301      	bcc.n	80002c6 <__divsi3+0xae>
 80002c2:	01cb      	lsls	r3, r1, #7
 80002c4:	1ac0      	subs	r0, r0, r3
 80002c6:	4152      	adcs	r2, r2
 80002c8:	0983      	lsrs	r3, r0, #6
 80002ca:	428b      	cmp	r3, r1
 80002cc:	d301      	bcc.n	80002d2 <__divsi3+0xba>
 80002ce:	018b      	lsls	r3, r1, #6
 80002d0:	1ac0      	subs	r0, r0, r3
 80002d2:	4152      	adcs	r2, r2
 80002d4:	0943      	lsrs	r3, r0, #5
 80002d6:	428b      	cmp	r3, r1
 80002d8:	d301      	bcc.n	80002de <__divsi3+0xc6>
 80002da:	014b      	lsls	r3, r1, #5
 80002dc:	1ac0      	subs	r0, r0, r3
 80002de:	4152      	adcs	r2, r2
 80002e0:	0903      	lsrs	r3, r0, #4
 80002e2:	428b      	cmp	r3, r1
 80002e4:	d301      	bcc.n	80002ea <__divsi3+0xd2>
 80002e6:	010b      	lsls	r3, r1, #4
 80002e8:	1ac0      	subs	r0, r0, r3
 80002ea:	4152      	adcs	r2, r2
 80002ec:	08c3      	lsrs	r3, r0, #3
 80002ee:	428b      	cmp	r3, r1
 80002f0:	d301      	bcc.n	80002f6 <__divsi3+0xde>
 80002f2:	00cb      	lsls	r3, r1, #3
 80002f4:	1ac0      	subs	r0, r0, r3
 80002f6:	4152      	adcs	r2, r2
 80002f8:	0883      	lsrs	r3, r0, #2
 80002fa:	428b      	cmp	r3, r1
 80002fc:	d301      	bcc.n	8000302 <__divsi3+0xea>
 80002fe:	008b      	lsls	r3, r1, #2
 8000300:	1ac0      	subs	r0, r0, r3
 8000302:	4152      	adcs	r2, r2
 8000304:	0843      	lsrs	r3, r0, #1
 8000306:	428b      	cmp	r3, r1
 8000308:	d301      	bcc.n	800030e <__divsi3+0xf6>
 800030a:	004b      	lsls	r3, r1, #1
 800030c:	1ac0      	subs	r0, r0, r3
 800030e:	4152      	adcs	r2, r2
 8000310:	1a41      	subs	r1, r0, r1
 8000312:	d200      	bcs.n	8000316 <__divsi3+0xfe>
 8000314:	4601      	mov	r1, r0
 8000316:	4152      	adcs	r2, r2
 8000318:	4610      	mov	r0, r2
 800031a:	4770      	bx	lr
 800031c:	e05d      	b.n	80003da <__divsi3+0x1c2>
 800031e:	0fca      	lsrs	r2, r1, #31
 8000320:	d000      	beq.n	8000324 <__divsi3+0x10c>
 8000322:	4249      	negs	r1, r1
 8000324:	1003      	asrs	r3, r0, #32
 8000326:	d300      	bcc.n	800032a <__divsi3+0x112>
 8000328:	4240      	negs	r0, r0
 800032a:	4053      	eors	r3, r2
 800032c:	2200      	movs	r2, #0
 800032e:	469c      	mov	ip, r3
 8000330:	0903      	lsrs	r3, r0, #4
 8000332:	428b      	cmp	r3, r1
 8000334:	d32d      	bcc.n	8000392 <__divsi3+0x17a>
 8000336:	0a03      	lsrs	r3, r0, #8
 8000338:	428b      	cmp	r3, r1
 800033a:	d312      	bcc.n	8000362 <__divsi3+0x14a>
 800033c:	22fc      	movs	r2, #252	@ 0xfc
 800033e:	0189      	lsls	r1, r1, #6
 8000340:	ba12      	rev	r2, r2
 8000342:	0a03      	lsrs	r3, r0, #8
 8000344:	428b      	cmp	r3, r1
 8000346:	d30c      	bcc.n	8000362 <__divsi3+0x14a>
 8000348:	0189      	lsls	r1, r1, #6
 800034a:	1192      	asrs	r2, r2, #6
 800034c:	428b      	cmp	r3, r1
 800034e:	d308      	bcc.n	8000362 <__divsi3+0x14a>
 8000350:	0189      	lsls	r1, r1, #6
 8000352:	1192      	asrs	r2, r2, #6
 8000354:	428b      	cmp	r3, r1
 8000356:	d304      	bcc.n	8000362 <__divsi3+0x14a>
 8000358:	0189      	lsls	r1, r1, #6
 800035a:	d03a      	beq.n	80003d2 <__divsi3+0x1ba>
 800035c:	1192      	asrs	r2, r2, #6
 800035e:	e000      	b.n	8000362 <__divsi3+0x14a>
 8000360:	0989      	lsrs	r1, r1, #6
 8000362:	09c3      	lsrs	r3, r0, #7
 8000364:	428b      	cmp	r3, r1
 8000366:	d301      	bcc.n	800036c <__divsi3+0x154>
 8000368:	01cb      	lsls	r3, r1, #7
 800036a:	1ac0      	subs	r0, r0, r3
 800036c:	4152      	adcs	r2, r2
 800036e:	0983      	lsrs	r3, r0, #6
 8000370:	428b      	cmp	r3, r1
 8000372:	d301      	bcc.n	8000378 <__divsi3+0x160>
 8000374:	018b      	lsls	r3, r1, #6
 8000376:	1ac0      	subs	r0, r0, r3
 8000378:	4152      	adcs	r2, r2
 800037a:	0943      	lsrs	r3, r0, #5
 800037c:	428b      	cmp	r3, r1
 800037e:	d301      	bcc.n	8000384 <__divsi3+0x16c>
 8000380:	014b      	lsls	r3, r1, #5
 8000382:	1ac0      	subs	r0, r0, r3
 8000384:	4152      	adcs	r2, r2
 8000386:	0903      	lsrs	r3, r0, #4
 8000388:	428b      	cmp	r3, r1
 800038a:	d301      	bcc.n	8000390 <__divsi3+0x178>
 800038c:	010b      	lsls	r3, r1, #4
 800038e:	1ac0      	subs	r0, r0, r3
 8000390:	4152      	adcs	r2, r2
 8000392:	08c3      	lsrs	r3, r0, #3
 8000394:	428b      	cmp	r3, r1
 8000396:	d301      	bcc.n	800039c <__divsi3+0x184>
 8000398:	00cb      	lsls	r3, r1, #3
 800039a:	1ac0      	subs	r0, r0, r3
 800039c:	4152      	adcs	r2, r2
 800039e:	0883      	lsrs	r3, r0, #2
 80003a0:	428b      	cmp	r3, r1
 80003a2:	d301      	bcc.n	80003a8 <__divsi3+0x190>
 80003a4:	008b      	lsls	r3, r1, #2
 80003a6:	1ac0      	subs	r0, r0, r3
 80003a8:	4152      	adcs	r2, r2
 80003aa:	d2d9      	bcs.n	8000360 <__divsi3+0x148>
 80003ac:	0843      	lsrs	r3, r0, #1
 80003ae:	428b      	cmp	r3, r1
 80003b0:	d301      	bcc.n	80003b6 <__divsi3+0x19e>
 80003b2:	004b      	lsls	r3, r1, #1
 80003b4:	1ac0      	subs	r0, r0, r3
 80003b6:	4152      	adcs	r2, r2
 80003b8:	1a41      	subs	r1, r0, r1
 80003ba:	d200      	bcs.n	80003be <__divsi3+0x1a6>
 80003bc:	4601      	mov	r1, r0
 80003be:	4663      	mov	r3, ip
 80003c0:	4152      	adcs	r2, r2
 80003c2:	105b      	asrs	r3, r3, #1
 80003c4:	4610      	mov	r0, r2
 80003c6:	d301      	bcc.n	80003cc <__divsi3+0x1b4>
 80003c8:	4240      	negs	r0, r0
 80003ca:	2b00      	cmp	r3, #0
 80003cc:	d500      	bpl.n	80003d0 <__divsi3+0x1b8>
 80003ce:	4249      	negs	r1, r1
 80003d0:	4770      	bx	lr
 80003d2:	4663      	mov	r3, ip
 80003d4:	105b      	asrs	r3, r3, #1
 80003d6:	d300      	bcc.n	80003da <__divsi3+0x1c2>
 80003d8:	4240      	negs	r0, r0
 80003da:	b501      	push	{r0, lr}
 80003dc:	2000      	movs	r0, #0
 80003de:	f000 f805 	bl	80003ec <__aeabi_idiv0>
 80003e2:	bd02      	pop	{r1, pc}

080003e4 <__aeabi_idivmod>:
 80003e4:	2900      	cmp	r1, #0
 80003e6:	d0f8      	beq.n	80003da <__divsi3+0x1c2>
 80003e8:	e716      	b.n	8000218 <__divsi3>
 80003ea:	4770      	bx	lr

080003ec <__aeabi_idiv0>:
 80003ec:	4770      	bx	lr
 80003ee:	46c0      	nop			@ (mov r8, r8)

080003f0 <__aeabi_uldivmod>:
 80003f0:	2b00      	cmp	r3, #0
 80003f2:	d111      	bne.n	8000418 <__aeabi_uldivmod+0x28>
 80003f4:	2a00      	cmp	r2, #0
 80003f6:	d10f      	bne.n	8000418 <__aeabi_uldivmod+0x28>
 80003f8:	2900      	cmp	r1, #0
 80003fa:	d100      	bne.n	80003fe <__aeabi_uldivmod+0xe>
 80003fc:	2800      	cmp	r0, #0
 80003fe:	d002      	beq.n	8000406 <__aeabi_uldivmod+0x16>
 8000400:	2100      	movs	r1, #0
 8000402:	43c9      	mvns	r1, r1
 8000404:	0008      	movs	r0, r1
 8000406:	b407      	push	{r0, r1, r2}
 8000408:	4802      	ldr	r0, [pc, #8]	@ (8000414 <__aeabi_uldivmod+0x24>)
 800040a:	a102      	add	r1, pc, #8	@ (adr r1, 8000414 <__aeabi_uldivmod+0x24>)
 800040c:	1840      	adds	r0, r0, r1
 800040e:	9002      	str	r0, [sp, #8]
 8000410:	bd03      	pop	{r0, r1, pc}
 8000412:	46c0      	nop			@ (mov r8, r8)
 8000414:	ffffffd9 	.word	0xffffffd9
 8000418:	b403      	push	{r0, r1}
 800041a:	4668      	mov	r0, sp
 800041c:	b501      	push	{r0, lr}
 800041e:	9802      	ldr	r0, [sp, #8]
 8000420:	f000 f806 	bl	8000430 <__udivmoddi4>
 8000424:	9b01      	ldr	r3, [sp, #4]
 8000426:	469e      	mov	lr, r3
 8000428:	b002      	add	sp, #8
 800042a:	bc0c      	pop	{r2, r3}
 800042c:	4770      	bx	lr
 800042e:	46c0      	nop			@ (mov r8, r8)

08000430 <__udivmoddi4>:
 8000430:	b5f0      	push	{r4, r5, r6, r7, lr}
 8000432:	4657      	mov	r7, sl
 8000434:	464e      	mov	r6, r9
 8000436:	4645      	mov	r5, r8
 8000438:	46de      	mov	lr, fp
 800043a:	b5e0      	push	{r5, r6, r7, lr}
 800043c:	0004      	movs	r4, r0
 800043e:	000d      	movs	r5, r1
 8000440:	4692      	mov	sl, r2
 8000442:	4699      	mov	r9, r3
 8000444:	b083      	sub	sp, #12
 8000446:	428b      	cmp	r3, r1
 8000448:	d830      	bhi.n	80004ac <__udivmoddi4+0x7c>
 800044a:	d02d      	beq.n	80004a8 <__udivmoddi4+0x78>
 800044c:	4649      	mov	r1, r9
 800044e:	4650      	mov	r0, sl
 8000450:	f000 f8ba 	bl	80005c8 <__clzdi2>
 8000454:	0029      	movs	r1, r5
 8000456:	0006      	movs	r6, r0
 8000458:	0020      	movs	r0, r4
 800045a:	f000 f8b5 	bl	80005c8 <__clzdi2>
 800045e:	1a33      	subs	r3, r6, r0
 8000460:	4698      	mov	r8, r3
 8000462:	3b20      	subs	r3, #32
 8000464:	d434      	bmi.n	80004d0 <__udivmoddi4+0xa0>
 8000466:	469b      	mov	fp, r3
 8000468:	4653      	mov	r3, sl
 800046a:	465a      	mov	r2, fp
 800046c:	4093      	lsls	r3, r2
 800046e:	4642      	mov	r2, r8
 8000470:	001f      	movs	r7, r3
 8000472:	4653      	mov	r3, sl
 8000474:	4093      	lsls	r3, r2
 8000476:	001e      	movs	r6, r3
 8000478:	42af      	cmp	r7, r5
 800047a:	d83b      	bhi.n	80004f4 <__udivmoddi4+0xc4>
 800047c:	42af      	cmp	r7, r5
 800047e:	d100      	bne.n	8000482 <__udivmoddi4+0x52>
 8000480:	e079      	b.n	8000576 <__udivmoddi4+0x146>
 8000482:	465b      	mov	r3, fp
 8000484:	1ba4      	subs	r4, r4, r6
 8000486:	41bd      	sbcs	r5, r7
 8000488:	2b00      	cmp	r3, #0
 800048a:	da00      	bge.n	800048e <__udivmoddi4+0x5e>
 800048c:	e076      	b.n	800057c <__udivmoddi4+0x14c>
 800048e:	2200      	movs	r2, #0
 8000490:	2300      	movs	r3, #0
 8000492:	9200      	str	r2, [sp, #0]
 8000494:	9301      	str	r3, [sp, #4]
 8000496:	2301      	movs	r3, #1
 8000498:	465a      	mov	r2, fp
 800049a:	4093      	lsls	r3, r2
 800049c:	9301      	str	r3, [sp, #4]
 800049e:	2301      	movs	r3, #1
 80004a0:	4642      	mov	r2, r8
 80004a2:	4093      	lsls	r3, r2
 80004a4:	9300      	str	r3, [sp, #0]
 80004a6:	e029      	b.n	80004fc <__udivmoddi4+0xcc>
 80004a8:	4282      	cmp	r2, r0
 80004aa:	d9cf      	bls.n	800044c <__udivmoddi4+0x1c>
 80004ac:	2200      	movs	r2, #0
 80004ae:	2300      	movs	r3, #0
 80004b0:	9200      	str	r2, [sp, #0]
 80004b2:	9301      	str	r3, [sp, #4]
 80004b4:	9b0c      	ldr	r3, [sp, #48]	@ 0x30
 80004b6:	2b00      	cmp	r3, #0
 80004b8:	d001      	beq.n	80004be <__udivmoddi4+0x8e>
 80004ba:	601c      	str	r4, [r3, #0]
 80004bc:	605d      	str	r5, [r3, #4]
 80004be:	9800      	ldr	r0, [sp, #0]
 80004c0:	9901      	ldr	r1, [sp, #4]
 80004c2:	b003      	add	sp, #12
 80004c4:	bcf0      	pop	{r4, r5, r6, r7}
 80004c6:	46bb      	mov	fp, r7
 80004c8:	46b2      	mov	sl, r6
 80004ca:	46a9      	mov	r9, r5
 80004cc:	46a0      	mov	r8, r4
 80004ce:	bdf0      	pop	{r4, r5, r6, r7, pc}
 80004d0:	4642      	mov	r2, r8
 80004d2:	469b      	mov	fp, r3
 80004d4:	2320      	movs	r3, #32
 80004d6:	1a9b      	subs	r3, r3, r2
 80004d8:	4652      	mov	r2, sl
 80004da:	40da      	lsrs	r2, r3
 80004dc:	4641      	mov	r1, r8
 80004de:	0013      	movs	r3, r2
 80004e0:	464a      	mov	r2, r9
 80004e2:	408a      	lsls	r2, r1
 80004e4:	0017      	movs	r7, r2
 80004e6:	4642      	mov	r2, r8
 80004e8:	431f      	orrs	r7, r3
 80004ea:	4653      	mov	r3, sl
 80004ec:	4093      	lsls	r3, r2
 80004ee:	001e      	movs	r6, r3
 80004f0:	42af      	cmp	r7, r5
 80004f2:	d9c3      	bls.n	800047c <__udivmoddi4+0x4c>
 80004f4:	2200      	movs	r2, #0
 80004f6:	2300      	movs	r3, #0
 80004f8:	9200      	str	r2, [sp, #0]
 80004fa:	9301      	str	r3, [sp, #4]
 80004fc:	4643      	mov	r3, r8
 80004fe:	2b00      	cmp	r3, #0
 8000500:	d0d8      	beq.n	80004b4 <__udivmoddi4+0x84>
 8000502:	07fb      	lsls	r3, r7, #31
 8000504:	0872      	lsrs	r2, r6, #1
 8000506:	431a      	orrs	r2, r3
 8000508:	4646      	mov	r6, r8
 800050a:	087b      	lsrs	r3, r7, #1
 800050c:	e00e      	b.n	800052c <__udivmoddi4+0xfc>
 800050e:	42ab      	cmp	r3, r5
 8000510:	d101      	bne.n	8000516 <__udivmoddi4+0xe6>
 8000512:	42a2      	cmp	r2, r4
 8000514:	d80c      	bhi.n	8000530 <__udivmoddi4+0x100>
 8000516:	1aa4      	subs	r4, r4, r2
 8000518:	419d      	sbcs	r5, r3
 800051a:	2001      	movs	r0, #1
 800051c:	1924      	adds	r4, r4, r4
 800051e:	416d      	adcs	r5, r5
 8000520:	2100      	movs	r1, #0
 8000522:	3e01      	subs	r6, #1
 8000524:	1824      	adds	r4, r4, r0
 8000526:	414d      	adcs	r5, r1
 8000528:	2e00      	cmp	r6, #0
 800052a:	d006      	beq.n	800053a <__udivmoddi4+0x10a>
 800052c:	42ab      	cmp	r3, r5
 800052e:	d9ee      	bls.n	800050e <__udivmoddi4+0xde>
 8000530:	3e01      	subs	r6, #1
 8000532:	1924      	adds	r4, r4, r4
 8000534:	416d      	adcs	r5, r5
 8000536:	2e00      	cmp	r6, #0
 8000538:	d1f8      	bne.n	800052c <__udivmoddi4+0xfc>
 800053a:	9800      	ldr	r0, [sp, #0]
 800053c:	9901      	ldr	r1, [sp, #4]
 800053e:	465b      	mov	r3, fp
 8000540:	1900      	adds	r0, r0, r4
 8000542:	4169      	adcs	r1, r5
 8000544:	2b00      	cmp	r3, #0
 8000546:	db24      	blt.n	8000592 <__udivmoddi4+0x162>
 8000548:	002b      	movs	r3, r5
 800054a:	465a      	mov	r2, fp
 800054c:	4644      	mov	r4, r8
 800054e:	40d3      	lsrs	r3, r2
 8000550:	002a      	movs	r2, r5
 8000552:	40e2      	lsrs	r2, r4
 8000554:	001c      	movs	r4, r3
 8000556:	465b      	mov	r3, fp
 8000558:	0015      	movs	r5, r2
 800055a:	2b00      	cmp	r3, #0
 800055c:	db2a      	blt.n	80005b4 <__udivmoddi4+0x184>
 800055e:	0026      	movs	r6, r4
 8000560:	409e      	lsls	r6, r3
 8000562:	0033      	movs	r3, r6
 8000564:	0026      	movs	r6, r4
 8000566:	4647      	mov	r7, r8
 8000568:	40be      	lsls	r6, r7
 800056a:	0032      	movs	r2, r6
 800056c:	1a80      	subs	r0, r0, r2
 800056e:	4199      	sbcs	r1, r3
 8000570:	9000      	str	r0, [sp, #0]
 8000572:	9101      	str	r1, [sp, #4]
 8000574:	e79e      	b.n	80004b4 <__udivmoddi4+0x84>
 8000576:	42a3      	cmp	r3, r4
 8000578:	d8bc      	bhi.n	80004f4 <__udivmoddi4+0xc4>
 800057a:	e782      	b.n	8000482 <__udivmoddi4+0x52>
 800057c:	4642      	mov	r2, r8
 800057e:	2320      	movs	r3, #32
 8000580:	2100      	movs	r1, #0
 8000582:	1a9b      	subs	r3, r3, r2
 8000584:	2200      	movs	r2, #0
 8000586:	9100      	str	r1, [sp, #0]
 8000588:	9201      	str	r2, [sp, #4]
 800058a:	2201      	movs	r2, #1
 800058c:	40da      	lsrs	r2, r3
 800058e:	9201      	str	r2, [sp, #4]
 8000590:	e785      	b.n	800049e <__udivmoddi4+0x6e>
 8000592:	4642      	mov	r2, r8
 8000594:	2320      	movs	r3, #32
 8000596:	1a9b      	subs	r3, r3, r2
 8000598:	002a      	movs	r2, r5
 800059a:	4646      	mov	r6, r8
 800059c:	409a      	lsls	r2, r3
 800059e:	0023      	movs	r3, r4
 80005a0:	40f3      	lsrs	r3, r6
 80005a2:	4644      	mov	r4, r8
 80005a4:	4313      	orrs	r3, r2
 80005a6:	002a      	movs	r2, r5
 80005a8:	40e2      	lsrs	r2, r4
 80005aa:	001c      	movs	r4, r3
 80005ac:	465b      	mov	r3, fp
 80005ae:	0015      	movs	r5, r2
 80005b0:	2b00      	cmp	r3, #0
 80005b2:	dad4      	bge.n	800055e <__udivmoddi4+0x12e>
 80005b4:	4642      	mov	r2, r8
 80005b6:	002f      	movs	r7, r5
 80005b8:	2320      	movs	r3, #32
 80005ba:	0026      	movs	r6, r4
 80005bc:	4097      	lsls	r7, r2
 80005be:	1a9b      	subs	r3, r3, r2
 80005c0:	40de      	lsrs	r6, r3
 80005c2:	003b      	movs	r3, r7
 80005c4:	4333      	orrs	r3, r6
 80005c6:	e7cd      	b.n	8000564 <__udivmoddi4+0x134>

080005c8 <__clzdi2>:
 80005c8:	b510      	push	{r4, lr}
 80005ca:	2900      	cmp	r1, #0
 80005cc:	d103      	bne.n	80005d6 <__clzdi2+0xe>
 80005ce:	f000 f807 	bl	80005e0 <__clzsi2>
 80005d2:	3020      	adds	r0, #32
 80005d4:	e002      	b.n	80005dc <__clzdi2+0x14>
 80005d6:	0008      	movs	r0, r1
 80005d8:	f000 f802 	bl	80005e0 <__clzsi2>
 80005dc:	bd10      	pop	{r4, pc}
 80005de:	46c0      	nop			@ (mov r8, r8)

080005e0 <__clzsi2>:
 80005e0:	211c      	movs	r1, #28
 80005e2:	2301      	movs	r3, #1
 80005e4:	041b      	lsls	r3, r3, #16
 80005e6:	4298      	cmp	r0, r3
 80005e8:	d301      	bcc.n	80005ee <__clzsi2+0xe>
 80005ea:	0c00      	lsrs	r0, r0, #16
 80005ec:	3910      	subs	r1, #16
 80005ee:	0a1b      	lsrs	r3, r3, #8
 80005f0:	4298      	cmp	r0, r3
 80005f2:	d301      	bcc.n	80005f8 <__clzsi2+0x18>
 80005f4:	0a00      	lsrs	r0, r0, #8
 80005f6:	3908      	subs	r1, #8
 80005f8:	091b      	lsrs	r3, r3, #4
 80005fa:	4298      	cmp	r0, r3
 80005fc:	d301      	bcc.n	8000602 <__clzsi2+0x22>
 80005fe:	0900      	lsrs	r0, r0, #4
 8000600:	3904      	subs	r1, #4
 8000602:	a202      	add	r2, pc, #8	@ (adr r2, 800060c <__clzsi2+0x2c>)
 8000604:	5c10      	ldrb	r0, [r2, r0]
 8000606:	1840      	adds	r0, r0, r1
 8000608:	4770      	bx	lr
 800060a:	46c0      	nop			@ (mov r8, r8)
 800060c:	02020304 	.word	0x02020304
 8000610:	01010101 	.word	0x01010101
	...

0800061c <MX_GPIO_Init>:
        * Output
        * EVENT_OUT
        * EXTI
*/
void MX_GPIO_Init(void)
{
 800061c:	b590      	push	{r4, r7, lr}
 800061e:	b089      	sub	sp, #36	@ 0x24
 8000620:	af00      	add	r7, sp, #0

  GPIO_InitTypeDef GPIO_InitStruct = {0};
 8000622:	240c      	movs	r4, #12
 8000624:	193b      	adds	r3, r7, r4
 8000626:	0018      	movs	r0, r3
 8000628:	2314      	movs	r3, #20
 800062a:	001a      	movs	r2, r3
 800062c:	2100      	movs	r1, #0
 800062e:	f002 fa19 	bl	8002a64 <memset>

  /* GPIO Ports Clock Enable */
  __HAL_RCC_GPIOC_CLK_ENABLE();
 8000632:	4b1b      	ldr	r3, [pc, #108]	@ (80006a0 <MX_GPIO_Init+0x84>)
 8000634:	6b5a      	ldr	r2, [r3, #52]	@ 0x34
 8000636:	4b1a      	ldr	r3, [pc, #104]	@ (80006a0 <MX_GPIO_Init+0x84>)
 8000638:	2104      	movs	r1, #4
 800063a:	430a      	orrs	r2, r1
 800063c:	635a      	str	r2, [r3, #52]	@ 0x34
 800063e:	4b18      	ldr	r3, [pc, #96]	@ (80006a0 <MX_GPIO_Init+0x84>)
 8000640:	6b5b      	ldr	r3, [r3, #52]	@ 0x34
 8000642:	2204      	movs	r2, #4
 8000644:	4013      	ands	r3, r2
 8000646:	60bb      	str	r3, [r7, #8]
 8000648:	68bb      	ldr	r3, [r7, #8]
  __HAL_RCC_GPIOA_CLK_ENABLE();
 800064a:	4b15      	ldr	r3, [pc, #84]	@ (80006a0 <MX_GPIO_Init+0x84>)
 800064c:	6b5a      	ldr	r2, [r3, #52]	@ 0x34
 800064e:	4b14      	ldr	r3, [pc, #80]	@ (80006a0 <MX_GPIO_Init+0x84>)
 8000650:	2101      	movs	r1, #1
 8000652:	430a      	orrs	r2, r1
 8000654:	635a      	str	r2, [r3, #52]	@ 0x34
 8000656:	4b12      	ldr	r3, [pc, #72]	@ (80006a0 <MX_GPIO_Init+0x84>)
 8000658:	6b5b      	ldr	r3, [r3, #52]	@ 0x34
 800065a:	2201      	movs	r2, #1
 800065c:	4013      	ands	r3, r2
 800065e:	607b      	str	r3, [r7, #4]
 8000660:	687b      	ldr	r3, [r7, #4]

  /*Configure GPIO pin Output Level */
  HAL_GPIO_WritePin(GREEN_LED_GPIO_Port, GREEN_LED_Pin, GPIO_PIN_RESET);
 8000662:	23a0      	movs	r3, #160	@ 0xa0
 8000664:	05db      	lsls	r3, r3, #23
 8000666:	2200      	movs	r2, #0
 8000668:	2120      	movs	r1, #32
 800066a:	0018      	movs	r0, r3
 800066c:	f000 fc78 	bl	8000f60 <HAL_GPIO_WritePin>

  /*Configure GPIO pin : GREEN_LED_Pin */
  GPIO_InitStruct.Pin = GREEN_LED_Pin;
 8000670:	0021      	movs	r1, r4
 8000672:	187b      	adds	r3, r7, r1
 8000674:	2220      	movs	r2, #32
 8000676:	601a      	str	r2, [r3, #0]
  GPIO_InitStruct.Mode = GPIO_MODE_OUTPUT_PP;
 8000678:	187b      	adds	r3, r7, r1
 800067a:	2201      	movs	r2, #1
 800067c:	605a      	str	r2, [r3, #4]
  GPIO_InitStruct.Pull = GPIO_NOPULL;
 800067e:	187b      	adds	r3, r7, r1
 8000680:	2200      	movs	r2, #0
 8000682:	609a      	str	r2, [r3, #8]
  GPIO_InitStruct.Speed = GPIO_SPEED_FREQ_LOW;
 8000684:	187b      	adds	r3, r7, r1
 8000686:	2200      	movs	r2, #0
 8000688:	60da      	str	r2, [r3, #12]
  HAL_GPIO_Init(GREEN_LED_GPIO_Port, &GPIO_InitStruct);
 800068a:	187a      	adds	r2, r7, r1
 800068c:	23a0      	movs	r3, #160	@ 0xa0
 800068e:	05db      	lsls	r3, r3, #23
 8000690:	0011      	movs	r1, r2
 8000692:	0018      	movs	r0, r3
 8000694:	f000 fb00 	bl	8000c98 <HAL_GPIO_Init>

}
 8000698:	46c0      	nop			@ (mov r8, r8)
 800069a:	46bd      	mov	sp, r7
 800069c:	b009      	add	sp, #36	@ 0x24
 800069e:	bd90      	pop	{r4, r7, pc}
 80006a0:	40021000 	.word	0x40021000

080006a4 <main>:
/**
  * @brief  The application entry point.
  * @retval int
  */
int main(void)
{
 80006a4:	b580      	push	{r7, lr}
 80006a6:	af00      	add	r7, sp, #0
  /* USER CODE END 1 */

  /* MCU Configuration--------------------------------------------------------*/

  /* Reset of all peripherals, Initializes the Flash interface and the Systick. */
  HAL_Init();
 80006a8:	f000 f998 	bl	80009dc <HAL_Init>
  /* USER CODE BEGIN Init */

  /* USER CODE END Init */

  /* Configure the system clock */
  SystemClock_Config();
 80006ac:	f000 f818 	bl	80006e0 <SystemClock_Config>

  /* USER CODE BEGIN SysInit */
#ifdef USE_STANDBY
  __HAL_PWR_CLEAR_FLAG(PWR_FLAG_WUF2);
 80006b0:	4b09      	ldr	r3, [pc, #36]	@ (80006d8 <main+0x34>)
 80006b2:	4a0a      	ldr	r2, [pc, #40]	@ (80006dc <main+0x38>)
 80006b4:	619a      	str	r2, [r3, #24]
#endif
  /* USER CODE END SysInit */

  /* Initialize all configured peripherals */
  MX_GPIO_Init();
 80006b6:	f7ff ffb1 	bl	800061c <MX_GPIO_Init>
  MX_USART2_UART_Init();
 80006ba:	f000 f8b7 	bl	800082c <MX_USART2_UART_Init>
  while (1)
  {
    /* USER CODE END WHILE */

    /* USER CODE BEGIN 3 */
	  HAL_Delay(1000);
 80006be:	23fa      	movs	r3, #250	@ 0xfa
 80006c0:	009b      	lsls	r3, r3, #2
 80006c2:	0018      	movs	r0, r3
 80006c4:	f000 fa10 	bl	8000ae8 <HAL_Delay>
#ifdef USE_STOP_MODE
	  HAL_PWR_EnterSTOPMode(PWR_LOWPOWERREGULATOR_ON,PWR_STOPENTRY_WFI);
	  SystemClock_Config();
#endif
#ifdef USE_STANDBY
	  HAL_PWR_EnableWakeUpPin(PWR_WAKEUP_PIN2);
 80006c8:	2002      	movs	r0, #2
 80006ca:	f000 fc67 	bl	8000f9c <HAL_PWR_EnableWakeUpPin>
	  HAL_PWR_EnterSTANDBYMode();
 80006ce:	f000 fc85 	bl	8000fdc <HAL_PWR_EnterSTANDBYMode>
	  HAL_Delay(1000);
 80006d2:	46c0      	nop			@ (mov r8, r8)
 80006d4:	e7f3      	b.n	80006be <main+0x1a>
 80006d6:	46c0      	nop			@ (mov r8, r8)
 80006d8:	40007000 	.word	0x40007000
 80006dc:	00010002 	.word	0x00010002

080006e0 <SystemClock_Config>:
/**
  * @brief System Clock Configuration
  * @retval None
  */
void SystemClock_Config(void)
{
 80006e0:	b590      	push	{r4, r7, lr}
 80006e2:	b093      	sub	sp, #76	@ 0x4c
 80006e4:	af00      	add	r7, sp, #0
  RCC_OscInitTypeDef RCC_OscInitStruct = {0};
 80006e6:	2410      	movs	r4, #16
 80006e8:	193b      	adds	r3, r7, r4
 80006ea:	0018      	movs	r0, r3
 80006ec:	2338      	movs	r3, #56	@ 0x38
 80006ee:	001a      	movs	r2, r3
 80006f0:	2100      	movs	r1, #0
 80006f2:	f002 f9b7 	bl	8002a64 <memset>
  RCC_ClkInitTypeDef RCC_ClkInitStruct = {0};
 80006f6:	003b      	movs	r3, r7
 80006f8:	0018      	movs	r0, r3
 80006fa:	2310      	movs	r3, #16
 80006fc:	001a      	movs	r2, r3
 80006fe:	2100      	movs	r1, #0
 8000700:	f002 f9b0 	bl	8002a64 <memset>

  /** Configure the main internal regulator output voltage
  */
  HAL_PWREx_ControlVoltageScaling(PWR_REGULATOR_VOLTAGE_SCALE1);
 8000704:	2380      	movs	r3, #128	@ 0x80
 8000706:	009b      	lsls	r3, r3, #2
 8000708:	0018      	movs	r0, r3
 800070a:	f000 fc81 	bl	8001010 <HAL_PWREx_ControlVoltageScaling>

  /** Initializes the RCC Oscillators according to the specified parameters
  * in the RCC_OscInitTypeDef structure.
  */
  RCC_OscInitStruct.OscillatorType = RCC_OSCILLATORTYPE_HSI;
 800070e:	193b      	adds	r3, r7, r4
 8000710:	2202      	movs	r2, #2
 8000712:	601a      	str	r2, [r3, #0]
  RCC_OscInitStruct.HSIState = RCC_HSI_ON;
 8000714:	193b      	adds	r3, r7, r4
 8000716:	2280      	movs	r2, #128	@ 0x80
 8000718:	0052      	lsls	r2, r2, #1
 800071a:	60da      	str	r2, [r3, #12]
  RCC_OscInitStruct.HSIDiv = RCC_HSI_DIV1;
 800071c:	0021      	movs	r1, r4
 800071e:	187b      	adds	r3, r7, r1
 8000720:	2200      	movs	r2, #0
 8000722:	611a      	str	r2, [r3, #16]
  RCC_OscInitStruct.HSICalibrationValue = RCC_HSICALIBRATION_DEFAULT;
 8000724:	187b      	adds	r3, r7, r1
 8000726:	2240      	movs	r2, #64	@ 0x40
 8000728:	615a      	str	r2, [r3, #20]
  RCC_OscInitStruct.PLL.PLLState = RCC_PLL_ON;
 800072a:	187b      	adds	r3, r7, r1
 800072c:	2202      	movs	r2, #2
 800072e:	61da      	str	r2, [r3, #28]
  RCC_OscInitStruct.PLL.PLLSource = RCC_PLLSOURCE_HSI;
 8000730:	187b      	adds	r3, r7, r1
 8000732:	2202      	movs	r2, #2
 8000734:	621a      	str	r2, [r3, #32]
  RCC_OscInitStruct.PLL.PLLM = RCC_PLLM_DIV1;
 8000736:	187b      	adds	r3, r7, r1
 8000738:	2200      	movs	r2, #0
 800073a:	625a      	str	r2, [r3, #36]	@ 0x24
  RCC_OscInitStruct.PLL.PLLN = 8;
 800073c:	187b      	adds	r3, r7, r1
 800073e:	2208      	movs	r2, #8
 8000740:	629a      	str	r2, [r3, #40]	@ 0x28
  RCC_OscInitStruct.PLL.PLLP = RCC_PLLP_DIV2;
 8000742:	187b      	adds	r3, r7, r1
 8000744:	2280      	movs	r2, #128	@ 0x80
 8000746:	0292      	lsls	r2, r2, #10
 8000748:	62da      	str	r2, [r3, #44]	@ 0x2c
  RCC_OscInitStruct.PLL.PLLQ = RCC_PLLQ_DIV2;
 800074a:	187b      	adds	r3, r7, r1
 800074c:	2280      	movs	r2, #128	@ 0x80
 800074e:	0492      	lsls	r2, r2, #18
 8000750:	631a      	str	r2, [r3, #48]	@ 0x30
  RCC_OscInitStruct.PLL.PLLR = RCC_PLLR_DIV2;
 8000752:	187b      	adds	r3, r7, r1
 8000754:	2280      	movs	r2, #128	@ 0x80
 8000756:	0592      	lsls	r2, r2, #22
 8000758:	635a      	str	r2, [r3, #52]	@ 0x34
  if (HAL_RCC_OscConfig(&RCC_OscInitStruct) != HAL_OK)
 800075a:	187b      	adds	r3, r7, r1
 800075c:	0018      	movs	r0, r3
 800075e:	f000 fca3 	bl	80010a8 <HAL_RCC_OscConfig>
 8000762:	1e03      	subs	r3, r0, #0
 8000764:	d001      	beq.n	800076a <SystemClock_Config+0x8a>
  {
    Error_Handler();
 8000766:	f000 f819 	bl	800079c <Error_Handler>
  }

  /** Initializes the CPU, AHB and APB buses clocks
  */
  RCC_ClkInitStruct.ClockType = RCC_CLOCKTYPE_HCLK|RCC_CLOCKTYPE_SYSCLK
 800076a:	003b      	movs	r3, r7
 800076c:	2207      	movs	r2, #7
 800076e:	601a      	str	r2, [r3, #0]
                              |RCC_CLOCKTYPE_PCLK1;
  RCC_ClkInitStruct.SYSCLKSource = RCC_SYSCLKSOURCE_PLLCLK;
 8000770:	003b      	movs	r3, r7
 8000772:	2202      	movs	r2, #2
 8000774:	605a      	str	r2, [r3, #4]
  RCC_ClkInitStruct.AHBCLKDivider = RCC_SYSCLK_DIV1;
 8000776:	003b      	movs	r3, r7
 8000778:	2200      	movs	r2, #0
 800077a:	609a      	str	r2, [r3, #8]
  RCC_ClkInitStruct.APB1CLKDivider = RCC_HCLK_DIV1;
 800077c:	003b      	movs	r3, r7
 800077e:	2200      	movs	r2, #0
 8000780:	60da      	str	r2, [r3, #12]

  if (HAL_RCC_ClockConfig(&RCC_ClkInitStruct, FLASH_LATENCY_2) != HAL_OK)
 8000782:	003b      	movs	r3, r7
 8000784:	2102      	movs	r1, #2
 8000786:	0018      	movs	r0, r3
 8000788:	f000 ffa8 	bl	80016dc <HAL_RCC_ClockConfig>
 800078c:	1e03      	subs	r3, r0, #0
 800078e:	d001      	beq.n	8000794 <SystemClock_Config+0xb4>
  {
    Error_Handler();
 8000790:	f000 f804 	bl	800079c <Error_Handler>
  }
}
 8000794:	46c0      	nop			@ (mov r8, r8)
 8000796:	46bd      	mov	sp, r7
 8000798:	b013      	add	sp, #76	@ 0x4c
 800079a:	bd90      	pop	{r4, r7, pc}

0800079c <Error_Handler>:
/**
  * @brief  This function is executed in case of error occurrence.
  * @retval None
  */
void Error_Handler(void)
{
 800079c:	b580      	push	{r7, lr}
 800079e:	af00      	add	r7, sp, #0
  \details Disables IRQ interrupts by setting the I-bit in the CPSR.
           Can only be executed in Privileged modes.
 */
__STATIC_FORCEINLINE void __disable_irq(void)
{
  __ASM volatile ("cpsid i" : : : "memory");
 80007a0:	b672      	cpsid	i
}
 80007a2:	46c0      	nop			@ (mov r8, r8)
  /* USER CODE BEGIN Error_Handler_Debug */
  /* User can add his own implementation to report the HAL error return state */
  __disable_irq();
  while (1)
 80007a4:	46c0      	nop			@ (mov r8, r8)
 80007a6:	e7fd      	b.n	80007a4 <Error_Handler+0x8>

080007a8 <HAL_MspInit>:
/* USER CODE END 0 */
/**
  * Initializes the Global MSP.
  */
void HAL_MspInit(void)
{
 80007a8:	b580      	push	{r7, lr}
 80007aa:	b082      	sub	sp, #8
 80007ac:	af00      	add	r7, sp, #0

  /* USER CODE BEGIN MspInit 0 */

  /* USER CODE END MspInit 0 */

  __HAL_RCC_SYSCFG_CLK_ENABLE();
 80007ae:	4b0f      	ldr	r3, [pc, #60]	@ (80007ec <HAL_MspInit+0x44>)
 80007b0:	6c1a      	ldr	r2, [r3, #64]	@ 0x40
 80007b2:	4b0e      	ldr	r3, [pc, #56]	@ (80007ec <HAL_MspInit+0x44>)
 80007b4:	2101      	movs	r1, #1
 80007b6:	430a      	orrs	r2, r1
 80007b8:	641a      	str	r2, [r3, #64]	@ 0x40
 80007ba:	4b0c      	ldr	r3, [pc, #48]	@ (80007ec <HAL_MspInit+0x44>)
 80007bc:	6c1b      	ldr	r3, [r3, #64]	@ 0x40
 80007be:	2201      	movs	r2, #1
 80007c0:	4013      	ands	r3, r2
 80007c2:	607b      	str	r3, [r7, #4]
 80007c4:	687b      	ldr	r3, [r7, #4]
  __HAL_RCC_PWR_CLK_ENABLE();
 80007c6:	4b09      	ldr	r3, [pc, #36]	@ (80007ec <HAL_MspInit+0x44>)
 80007c8:	6bda      	ldr	r2, [r3, #60]	@ 0x3c
 80007ca:	4b08      	ldr	r3, [pc, #32]	@ (80007ec <HAL_MspInit+0x44>)
 80007cc:	2180      	movs	r1, #128	@ 0x80
 80007ce:	0549      	lsls	r1, r1, #21
 80007d0:	430a      	orrs	r2, r1
 80007d2:	63da      	str	r2, [r3, #60]	@ 0x3c
 80007d4:	4b05      	ldr	r3, [pc, #20]	@ (80007ec <HAL_MspInit+0x44>)
 80007d6:	6bda      	ldr	r2, [r3, #60]	@ 0x3c
 80007d8:	2380      	movs	r3, #128	@ 0x80
 80007da:	055b      	lsls	r3, r3, #21
 80007dc:	4013      	ands	r3, r2
 80007de:	603b      	str	r3, [r7, #0]
 80007e0:	683b      	ldr	r3, [r7, #0]
  /* System interrupt init*/

  /* USER CODE BEGIN MspInit 1 */

  /* USER CODE END MspInit 1 */
}
 80007e2:	46c0      	nop			@ (mov r8, r8)
 80007e4:	46bd      	mov	sp, r7
 80007e6:	b002      	add	sp, #8
 80007e8:	bd80      	pop	{r7, pc}
 80007ea:	46c0      	nop			@ (mov r8, r8)
 80007ec:	40021000 	.word	0x40021000

080007f0 <NMI_Handler>:
/******************************************************************************/
/**
  * @brief This function handles Non maskable interrupt.
  */
void NMI_Handler(void)
{
 80007f0:	b580      	push	{r7, lr}
 80007f2:	af00      	add	r7, sp, #0
  /* USER CODE BEGIN NonMaskableInt_IRQn 0 */

  /* USER CODE END NonMaskableInt_IRQn 0 */
  /* USER CODE BEGIN NonMaskableInt_IRQn 1 */
   while (1)
 80007f4:	46c0      	nop			@ (mov r8, r8)
 80007f6:	e7fd      	b.n	80007f4 <NMI_Handler+0x4>

080007f8 <HardFault_Handler>:

/**
  * @brief This function handles Hard fault interrupt.
  */
void HardFault_Handler(void)
{
 80007f8:	b580      	push	{r7, lr}
 80007fa:	af00      	add	r7, sp, #0
  /* USER CODE BEGIN HardFault_IRQn 0 */

  /* USER CODE END HardFault_IRQn 0 */
  while (1)
 80007fc:	46c0      	nop			@ (mov r8, r8)
 80007fe:	e7fd      	b.n	80007fc <HardFault_Handler+0x4>

08000800 <SVC_Handler>:

/**
  * @brief This function handles System service call via SWI instruction.
  */
void SVC_Handler(void)
{
 8000800:	b580      	push	{r7, lr}
 8000802:	af00      	add	r7, sp, #0

  /* USER CODE END SVC_IRQn 0 */
  /* USER CODE BEGIN SVC_IRQn 1 */

  /* USER CODE END SVC_IRQn 1 */
}
 8000804:	46c0      	nop			@ (mov r8, r8)
 8000806:	46bd      	mov	sp, r7
 8000808:	bd80      	pop	{r7, pc}

0800080a <PendSV_Handler>:

/**
  * @brief This function handles Pendable request for system service.
  */
void PendSV_Handler(void)
{
 800080a:	b580      	push	{r7, lr}
 800080c:	af00      	add	r7, sp, #0

  /* USER CODE END PendSV_IRQn 0 */
  /* USER CODE BEGIN PendSV_IRQn 1 */

  /* USER CODE END PendSV_IRQn 1 */
}
 800080e:	46c0      	nop			@ (mov r8, r8)
 8000810:	46bd      	mov	sp, r7
 8000812:	bd80      	pop	{r7, pc}

08000814 <SysTick_Handler>:

/**
  * @brief This function handles System tick timer.
  */
void SysTick_Handler(void)
{
 8000814:	b580      	push	{r7, lr}
 8000816:	af00      	add	r7, sp, #0
  /* USER CODE BEGIN SysTick_IRQn 0 */

  /* USER CODE END SysTick_IRQn 0 */
  HAL_IncTick();
 8000818:	f000 f94a 	bl	8000ab0 <HAL_IncTick>
  /* USER CODE BEGIN SysTick_IRQn 1 */

  /* USER CODE END SysTick_IRQn 1 */
}
 800081c:	46c0      	nop			@ (mov r8, r8)
 800081e:	46bd      	mov	sp, r7
 8000820:	bd80      	pop	{r7, pc}

08000822 <SystemInit>:
  * @brief  Setup the microcontroller system.
  * @param  None
  * @retval None
  */
void SystemInit(void)
{
 8000822:	b580      	push	{r7, lr}
 8000824:	af00      	add	r7, sp, #0
  /* Configure the Vector Table location -------------------------------------*/
#if defined(USER_VECT_TAB_ADDRESS)
  SCB->VTOR = VECT_TAB_BASE_ADDRESS | VECT_TAB_OFFSET; /* Vector Table Relocation */
#endif /* USER_VECT_TAB_ADDRESS */
}
 8000826:	46c0      	nop			@ (mov r8, r8)
 8000828:	46bd      	mov	sp, r7
 800082a:	bd80      	pop	{r7, pc}

0800082c <MX_USART2_UART_Init>:
UART_HandleTypeDef huart2;

/* USART2 init function */

void MX_USART2_UART_Init(void)
{
 800082c:	b580      	push	{r7, lr}
 800082e:	af00      	add	r7, sp, #0
  /* USER CODE END USART2_Init 0 */

  /* USER CODE BEGIN USART2_Init 1 */

  /* USER CODE END USART2_Init 1 */
  huart2.Instance = USART2;
 8000830:	4b23      	ldr	r3, [pc, #140]	@ (80008c0 <MX_USART2_UART_Init+0x94>)
 8000832:	4a24      	ldr	r2, [pc, #144]	@ (80008c4 <MX_USART2_UART_Init+0x98>)
 8000834:	601a      	str	r2, [r3, #0]
  huart2.Init.BaudRate = 115200;
 8000836:	4b22      	ldr	r3, [pc, #136]	@ (80008c0 <MX_USART2_UART_Init+0x94>)
 8000838:	22e1      	movs	r2, #225	@ 0xe1
 800083a:	0252      	lsls	r2, r2, #9
 800083c:	605a      	str	r2, [r3, #4]
  huart2.Init.WordLength = UART_WORDLENGTH_8B;
 800083e:	4b20      	ldr	r3, [pc, #128]	@ (80008c0 <MX_USART2_UART_Init+0x94>)
 8000840:	2200      	movs	r2, #0
 8000842:	609a      	str	r2, [r3, #8]
  huart2.Init.StopBits = UART_STOPBITS_1;
 8000844:	4b1e      	ldr	r3, [pc, #120]	@ (80008c0 <MX_USART2_UART_Init+0x94>)
 8000846:	2200      	movs	r2, #0
 8000848:	60da      	str	r2, [r3, #12]
  huart2.Init.Parity = UART_PARITY_NONE;
 800084a:	4b1d      	ldr	r3, [pc, #116]	@ (80008c0 <MX_USART2_UART_Init+0x94>)
 800084c:	2200      	movs	r2, #0
 800084e:	611a      	str	r2, [r3, #16]
  huart2.Init.Mode = UART_MODE_TX_RX;
 8000850:	4b1b      	ldr	r3, [pc, #108]	@ (80008c0 <MX_USART2_UART_Init+0x94>)
 8000852:	220c      	movs	r2, #12
 8000854:	615a      	str	r2, [r3, #20]
  huart2.Init.HwFlowCtl = UART_HWCONTROL_NONE;
 8000856:	4b1a      	ldr	r3, [pc, #104]	@ (80008c0 <MX_USART2_UART_Init+0x94>)
 8000858:	2200      	movs	r2, #0
 800085a:	619a      	str	r2, [r3, #24]
  huart2.Init.OverSampling = UART_OVERSAMPLING_16;
 800085c:	4b18      	ldr	r3, [pc, #96]	@ (80008c0 <MX_USART2_UART_Init+0x94>)
 800085e:	2200      	movs	r2, #0
 8000860:	61da      	str	r2, [r3, #28]
  huart2.Init.OneBitSampling = UART_ONE_BIT_SAMPLE_DISABLE;
 8000862:	4b17      	ldr	r3, [pc, #92]	@ (80008c0 <MX_USART2_UART_Init+0x94>)
 8000864:	2200      	movs	r2, #0
 8000866:	621a      	str	r2, [r3, #32]
  huart2.Init.ClockPrescaler = UART_PRESCALER_DIV1;
 8000868:	4b15      	ldr	r3, [pc, #84]	@ (80008c0 <MX_USART2_UART_Init+0x94>)
 800086a:	2200      	movs	r2, #0
 800086c:	625a      	str	r2, [r3, #36]	@ 0x24
  huart2.AdvancedInit.AdvFeatureInit = UART_ADVFEATURE_NO_INIT;
 800086e:	4b14      	ldr	r3, [pc, #80]	@ (80008c0 <MX_USART2_UART_Init+0x94>)
 8000870:	2200      	movs	r2, #0
 8000872:	629a      	str	r2, [r3, #40]	@ 0x28
  if (HAL_UART_Init(&huart2) != HAL_OK)
 8000874:	4b12      	ldr	r3, [pc, #72]	@ (80008c0 <MX_USART2_UART_Init+0x94>)
 8000876:	0018      	movs	r0, r3
 8000878:	f001 fa92 	bl	8001da0 <HAL_UART_Init>
 800087c:	1e03      	subs	r3, r0, #0
 800087e:	d001      	beq.n	8000884 <MX_USART2_UART_Init+0x58>
  {
    Error_Handler();
 8000880:	f7ff ff8c 	bl	800079c <Error_Handler>
  }
  if (HAL_UARTEx_SetTxFifoThreshold(&huart2, UART_TXFIFO_THRESHOLD_1_8) != HAL_OK)
 8000884:	4b0e      	ldr	r3, [pc, #56]	@ (80008c0 <MX_USART2_UART_Init+0x94>)
 8000886:	2100      	movs	r1, #0
 8000888:	0018      	movs	r0, r3
 800088a:	f002 f80b 	bl	80028a4 <HAL_UARTEx_SetTxFifoThreshold>
 800088e:	1e03      	subs	r3, r0, #0
 8000890:	d001      	beq.n	8000896 <MX_USART2_UART_Init+0x6a>
  {
    Error_Handler();
 8000892:	f7ff ff83 	bl	800079c <Error_Handler>
  }
  if (HAL_UARTEx_SetRxFifoThreshold(&huart2, UART_RXFIFO_THRESHOLD_1_8) != HAL_OK)
 8000896:	4b0a      	ldr	r3, [pc, #40]	@ (80008c0 <MX_USART2_UART_Init+0x94>)
 8000898:	2100      	movs	r1, #0
 800089a:	0018      	movs	r0, r3
 800089c:	f002 f842 	bl	8002924 <HAL_UARTEx_SetRxFifoThreshold>
 80008a0:	1e03      	subs	r3, r0, #0
 80008a2:	d001      	beq.n	80008a8 <MX_USART2_UART_Init+0x7c>
  {
    Error_Handler();
 80008a4:	f7ff ff7a 	bl	800079c <Error_Handler>
  }
  if (HAL_UARTEx_DisableFifoMode(&huart2) != HAL_OK)
 80008a8:	4b05      	ldr	r3, [pc, #20]	@ (80008c0 <MX_USART2_UART_Init+0x94>)
 80008aa:	0018      	movs	r0, r3
 80008ac:	f001 ffc0 	bl	8002830 <HAL_UARTEx_DisableFifoMode>
 80008b0:	1e03      	subs	r3, r0, #0
 80008b2:	d001      	beq.n	80008b8 <MX_USART2_UART_Init+0x8c>
  {
    Error_Handler();
 80008b4:	f7ff ff72 	bl	800079c <Error_Handler>
  }
  /* USER CODE BEGIN USART2_Init 2 */

  /* USER CODE END USART2_Init 2 */

}
 80008b8:	46c0      	nop			@ (mov r8, r8)
 80008ba:	46bd      	mov	sp, r7
 80008bc:	bd80      	pop	{r7, pc}
 80008be:	46c0      	nop			@ (mov r8, r8)
 80008c0:	20000028 	.word	0x20000028
 80008c4:	40004400 	.word	0x40004400

080008c8 <HAL_UART_MspInit>:

void HAL_UART_MspInit(UART_HandleTypeDef* uartHandle)
{
 80008c8:	b590      	push	{r4, r7, lr}
 80008ca:	b097      	sub	sp, #92	@ 0x5c
 80008cc:	af00      	add	r7, sp, #0
 80008ce:	6078      	str	r0, [r7, #4]

  GPIO_InitTypeDef GPIO_InitStruct = {0};
 80008d0:	2344      	movs	r3, #68	@ 0x44
 80008d2:	18fb      	adds	r3, r7, r3
 80008d4:	0018      	movs	r0, r3
 80008d6:	2314      	movs	r3, #20
 80008d8:	001a      	movs	r2, r3
 80008da:	2100      	movs	r1, #0
 80008dc:	f002 f8c2 	bl	8002a64 <memset>
  RCC_PeriphCLKInitTypeDef PeriphClkInit = {0};
 80008e0:	2410      	movs	r4, #16
 80008e2:	193b      	adds	r3, r7, r4
 80008e4:	0018      	movs	r0, r3
 80008e6:	2334      	movs	r3, #52	@ 0x34
 80008e8:	001a      	movs	r2, r3
 80008ea:	2100      	movs	r1, #0
 80008ec:	f002 f8ba 	bl	8002a64 <memset>
  if(uartHandle->Instance==USART2)
 80008f0:	687b      	ldr	r3, [r7, #4]
 80008f2:	681b      	ldr	r3, [r3, #0]
 80008f4:	4a22      	ldr	r2, [pc, #136]	@ (8000980 <HAL_UART_MspInit+0xb8>)
 80008f6:	4293      	cmp	r3, r2
 80008f8:	d13e      	bne.n	8000978 <HAL_UART_MspInit+0xb0>

  /* USER CODE END USART2_MspInit 0 */

  /** Initializes the peripherals clocks
  */
    PeriphClkInit.PeriphClockSelection = RCC_PERIPHCLK_USART2;
 80008fa:	193b      	adds	r3, r7, r4
 80008fc:	2202      	movs	r2, #2
 80008fe:	601a      	str	r2, [r3, #0]
    PeriphClkInit.Usart2ClockSelection = RCC_USART2CLKSOURCE_PCLK1;
 8000900:	193b      	adds	r3, r7, r4
 8000902:	2200      	movs	r2, #0
 8000904:	609a      	str	r2, [r3, #8]
    if (HAL_RCCEx_PeriphCLKConfig(&PeriphClkInit) != HAL_OK)
 8000906:	193b      	adds	r3, r7, r4
 8000908:	0018      	movs	r0, r3
 800090a:	f001 f891 	bl	8001a30 <HAL_RCCEx_PeriphCLKConfig>
 800090e:	1e03      	subs	r3, r0, #0
 8000910:	d001      	beq.n	8000916 <HAL_UART_MspInit+0x4e>
    {
      Error_Handler();
 8000912:	f7ff ff43 	bl	800079c <Error_Handler>
    }

    /* USART2 clock enable */
    __HAL_RCC_USART2_CLK_ENABLE();
 8000916:	4b1b      	ldr	r3, [pc, #108]	@ (8000984 <HAL_UART_MspInit+0xbc>)
 8000918:	6bda      	ldr	r2, [r3, #60]	@ 0x3c
 800091a:	4b1a      	ldr	r3, [pc, #104]	@ (8000984 <HAL_UART_MspInit+0xbc>)
 800091c:	2180      	movs	r1, #128	@ 0x80
 800091e:	0289      	lsls	r1, r1, #10
 8000920:	430a      	orrs	r2, r1
 8000922:	63da      	str	r2, [r3, #60]	@ 0x3c
 8000924:	4b17      	ldr	r3, [pc, #92]	@ (8000984 <HAL_UART_MspInit+0xbc>)
 8000926:	6bda      	ldr	r2, [r3, #60]	@ 0x3c
 8000928:	2380      	movs	r3, #128	@ 0x80
 800092a:	029b      	lsls	r3, r3, #10
 800092c:	4013      	ands	r3, r2
 800092e:	60fb      	str	r3, [r7, #12]
 8000930:	68fb      	ldr	r3, [r7, #12]

    __HAL_RCC_GPIOA_CLK_ENABLE();
 8000932:	4b14      	ldr	r3, [pc, #80]	@ (8000984 <HAL_UART_MspInit+0xbc>)
 8000934:	6b5a      	ldr	r2, [r3, #52]	@ 0x34
 8000936:	4b13      	ldr	r3, [pc, #76]	@ (8000984 <HAL_UART_MspInit+0xbc>)
 8000938:	2101      	movs	r1, #1
 800093a:	430a      	orrs	r2, r1
 800093c:	635a      	str	r2, [r3, #52]	@ 0x34
 800093e:	4b11      	ldr	r3, [pc, #68]	@ (8000984 <HAL_UART_MspInit+0xbc>)
 8000940:	6b5b      	ldr	r3, [r3, #52]	@ 0x34
 8000942:	2201      	movs	r2, #1
 8000944:	4013      	ands	r3, r2
 8000946:	60bb      	str	r3, [r7, #8]
 8000948:	68bb      	ldr	r3, [r7, #8]
    /**USART2 GPIO Configuration
    PA2     ------> USART2_TX
    PA3     ------> USART2_RX
    */
    GPIO_InitStruct.Pin = GPIO_PIN_2|GPIO_PIN_3;
 800094a:	2144      	movs	r1, #68	@ 0x44
 800094c:	187b      	adds	r3, r7, r1
 800094e:	220c      	movs	r2, #12
 8000950:	601a      	str	r2, [r3, #0]
    GPIO_InitStruct.Mode = GPIO_MODE_AF_PP;
 8000952:	187b      	adds	r3, r7, r1
 8000954:	2202      	movs	r2, #2
 8000956:	605a      	str	r2, [r3, #4]
    GPIO_InitStruct.Pull = GPIO_NOPULL;
 8000958:	187b      	adds	r3, r7, r1
 800095a:	2200      	movs	r2, #0
 800095c:	609a      	str	r2, [r3, #8]
    GPIO_InitStruct.Speed = GPIO_SPEED_FREQ_LOW;
 800095e:	187b      	adds	r3, r7, r1
 8000960:	2200      	movs	r2, #0
 8000962:	60da      	str	r2, [r3, #12]
    GPIO_InitStruct.Alternate = GPIO_AF1_USART2;
 8000964:	187b      	adds	r3, r7, r1
 8000966:	2201      	movs	r2, #1
 8000968:	611a      	str	r2, [r3, #16]
    HAL_GPIO_Init(GPIOA, &GPIO_InitStruct);
 800096a:	187a      	adds	r2, r7, r1
 800096c:	23a0      	movs	r3, #160	@ 0xa0
 800096e:	05db      	lsls	r3, r3, #23
 8000970:	0011      	movs	r1, r2
 8000972:	0018      	movs	r0, r3
 8000974:	f000 f990 	bl	8000c98 <HAL_GPIO_Init>

  /* USER CODE BEGIN USART2_MspInit 1 */

  /* USER CODE END USART2_MspInit 1 */
  }
}
 8000978:	46c0      	nop			@ (mov r8, r8)
 800097a:	46bd      	mov	sp, r7
 800097c:	b017      	add	sp, #92	@ 0x5c
 800097e:	bd90      	pop	{r4, r7, pc}
 8000980:	40004400 	.word	0x40004400
 8000984:	40021000 	.word	0x40021000

08000988 <Reset_Handler>:

  .section .text.Reset_Handler
  .weak Reset_Handler
  .type Reset_Handler, %function
Reset_Handler:
  ldr   r0, =_estack
 8000988:	480d      	ldr	r0, [pc, #52]	@ (80009c0 <LoopForever+0x2>)
  mov   sp, r0          /* set stack pointer */
 800098a:	4685      	mov	sp, r0

/* Call the clock system initialization function.*/
  bl  SystemInit
 800098c:	f7ff ff49 	bl	8000822 <SystemInit>

/* Copy the data segment initializers from flash to SRAM */
  ldr r0, =_sdata
 8000990:	480c      	ldr	r0, [pc, #48]	@ (80009c4 <LoopForever+0x6>)
  ldr r1, =_edata
 8000992:	490d      	ldr	r1, [pc, #52]	@ (80009c8 <LoopForever+0xa>)
  ldr r2, =_sidata
 8000994:	4a0d      	ldr	r2, [pc, #52]	@ (80009cc <LoopForever+0xe>)
  movs r3, #0
 8000996:	2300      	movs	r3, #0
  b LoopCopyDataInit
 8000998:	e002      	b.n	80009a0 <LoopCopyDataInit>

0800099a <CopyDataInit>:

CopyDataInit:
  ldr r4, [r2, r3]
 800099a:	58d4      	ldr	r4, [r2, r3]
  str r4, [r0, r3]
 800099c:	50c4      	str	r4, [r0, r3]
  adds r3, r3, #4
 800099e:	3304      	adds	r3, #4

080009a0 <LoopCopyDataInit>:

LoopCopyDataInit:
  adds r4, r0, r3
 80009a0:	18c4      	adds	r4, r0, r3
  cmp r4, r1
 80009a2:	428c      	cmp	r4, r1
  bcc CopyDataInit
 80009a4:	d3f9      	bcc.n	800099a <CopyDataInit>

/* Zero fill the bss segment. */
  ldr r2, =_sbss
 80009a6:	4a0a      	ldr	r2, [pc, #40]	@ (80009d0 <LoopForever+0x12>)
  ldr r4, =_ebss
 80009a8:	4c0a      	ldr	r4, [pc, #40]	@ (80009d4 <LoopForever+0x16>)
  movs r3, #0
 80009aa:	2300      	movs	r3, #0
  b LoopFillZerobss
 80009ac:	e001      	b.n	80009b2 <LoopFillZerobss>

080009ae <FillZerobss>:

FillZerobss:
  str  r3, [r2]
 80009ae:	6013      	str	r3, [r2, #0]
  adds r2, r2, #4
 80009b0:	3204      	adds	r2, #4

080009b2 <LoopFillZerobss>:

LoopFillZerobss:
  cmp r2, r4
 80009b2:	42a2      	cmp	r2, r4
  bcc FillZerobss
 80009b4:	d3fb      	bcc.n	80009ae <FillZerobss>

/* Call static constructors */
  bl __libc_init_array
 80009b6:	f002 f85d 	bl	8002a74 <__libc_init_array>
/* Call the application s entry point.*/
  bl main
 80009ba:	f7ff fe73 	bl	80006a4 <main>

080009be <LoopForever>:

LoopForever:
  b LoopForever
 80009be:	e7fe      	b.n	80009be <LoopForever>
  ldr   r0, =_estack
 80009c0:	20009000 	.word	0x20009000
  ldr r0, =_sdata
 80009c4:	20000000 	.word	0x20000000
  ldr r1, =_edata
 80009c8:	2000000c 	.word	0x2000000c
  ldr r2, =_sidata
 80009cc:	08002b6c 	.word	0x08002b6c
  ldr r2, =_sbss
 80009d0:	2000000c 	.word	0x2000000c
  ldr r4, =_ebss
 80009d4:	200000c0 	.word	0x200000c0

080009d8 <ADC1_COMP_IRQHandler>:
 * @retval None
*/
  .section .text.Default_Handler,"ax",%progbits
Default_Handler:
Infinite_Loop:
  b Infinite_Loop
 80009d8:	e7fe      	b.n	80009d8 <ADC1_COMP_IRQHandler>
	...

080009dc <HAL_Init>:
  *         each 1ms in the SysTick_Handler() interrupt handler.
  *
  * @retval HAL status
  */
HAL_StatusTypeDef HAL_Init(void)
{
 80009dc:	b580      	push	{r7, lr}
 80009de:	b082      	sub	sp, #8
 80009e0:	af00      	add	r7, sp, #0
  HAL_StatusTypeDef  status = HAL_OK;
 80009e2:	1dfb      	adds	r3, r7, #7
 80009e4:	2200      	movs	r2, #0
 80009e6:	701a      	strb	r2, [r3, #0]
#if (INSTRUCTION_CACHE_ENABLE == 0U)
  __HAL_FLASH_INSTRUCTION_CACHE_DISABLE();
#endif /* INSTRUCTION_CACHE_ENABLE */

#if (PREFETCH_ENABLE != 0U)
  __HAL_FLASH_PREFETCH_BUFFER_ENABLE();
 80009e8:	4b0b      	ldr	r3, [pc, #44]	@ (8000a18 <HAL_Init+0x3c>)
 80009ea:	681a      	ldr	r2, [r3, #0]
 80009ec:	4b0a      	ldr	r3, [pc, #40]	@ (8000a18 <HAL_Init+0x3c>)
 80009ee:	2180      	movs	r1, #128	@ 0x80
 80009f0:	0049      	lsls	r1, r1, #1
 80009f2:	430a      	orrs	r2, r1
 80009f4:	601a      	str	r2, [r3, #0]
#endif /* PREFETCH_ENABLE */

  /* Use SysTick as time base source and configure 1ms tick (default clock after Reset is HSI) */
  if (HAL_InitTick(TICK_INT_PRIORITY) != HAL_OK)
 80009f6:	2003      	movs	r0, #3
 80009f8:	f000 f810 	bl	8000a1c <HAL_InitTick>
 80009fc:	1e03      	subs	r3, r0, #0
 80009fe:	d003      	beq.n	8000a08 <HAL_Init+0x2c>
  {
    status = HAL_ERROR;
 8000a00:	1dfb      	adds	r3, r7, #7
 8000a02:	2201      	movs	r2, #1
 8000a04:	701a      	strb	r2, [r3, #0]
 8000a06:	e001      	b.n	8000a0c <HAL_Init+0x30>
  }
  else
  {
  /* Init the low level hardware */
  HAL_MspInit();
 8000a08:	f7ff fece 	bl	80007a8 <HAL_MspInit>
  }

  /* Return function status */
  return status;
 8000a0c:	1dfb      	adds	r3, r7, #7
 8000a0e:	781b      	ldrb	r3, [r3, #0]
}
 8000a10:	0018      	movs	r0, r3
 8000a12:	46bd      	mov	sp, r7
 8000a14:	b002      	add	sp, #8
 8000a16:	bd80      	pop	{r7, pc}
 8000a18:	40022000 	.word	0x40022000

08000a1c <HAL_InitTick>:
  *       implementation  in user file.
  * @param TickPriority Tick interrupt priority.
  * @retval HAL status
  */
__weak HAL_StatusTypeDef HAL_InitTick(uint32_t TickPriority)
{
 8000a1c:	b590      	push	{r4, r7, lr}
 8000a1e:	b085      	sub	sp, #20
 8000a20:	af00      	add	r7, sp, #0
 8000a22:	6078      	str	r0, [r7, #4]
  HAL_StatusTypeDef  status = HAL_OK;
 8000a24:	230f      	movs	r3, #15
 8000a26:	18fb      	adds	r3, r7, r3
 8000a28:	2200      	movs	r2, #0
 8000a2a:	701a      	strb	r2, [r3, #0]

  /* Check uwTickFreq for MisraC 2012 (even if uwTickFreq is a enum type that doesn't take the value zero)*/ 
  if ((uint32_t)uwTickFreq != 0U)
 8000a2c:	4b1d      	ldr	r3, [pc, #116]	@ (8000aa4 <HAL_InitTick+0x88>)
 8000a2e:	781b      	ldrb	r3, [r3, #0]
 8000a30:	2b00      	cmp	r3, #0
 8000a32:	d02b      	beq.n	8000a8c <HAL_InitTick+0x70>
  {
    /*Configure the SysTick to have interrupt in 1ms time basis*/
    if (HAL_SYSTICK_Config(SystemCoreClock / (1000U /(uint32_t)uwTickFreq)) == 0U)
 8000a34:	4b1c      	ldr	r3, [pc, #112]	@ (8000aa8 <HAL_InitTick+0x8c>)
 8000a36:	681c      	ldr	r4, [r3, #0]
 8000a38:	4b1a      	ldr	r3, [pc, #104]	@ (8000aa4 <HAL_InitTick+0x88>)
 8000a3a:	781b      	ldrb	r3, [r3, #0]
 8000a3c:	0019      	movs	r1, r3
 8000a3e:	23fa      	movs	r3, #250	@ 0xfa
 8000a40:	0098      	lsls	r0, r3, #2
 8000a42:	f7ff fb5f 	bl	8000104 <__udivsi3>
 8000a46:	0003      	movs	r3, r0
 8000a48:	0019      	movs	r1, r3
 8000a4a:	0020      	movs	r0, r4
 8000a4c:	f7ff fb5a 	bl	8000104 <__udivsi3>
 8000a50:	0003      	movs	r3, r0
 8000a52:	0018      	movs	r0, r3
 8000a54:	f000 f913 	bl	8000c7e <HAL_SYSTICK_Config>
 8000a58:	1e03      	subs	r3, r0, #0
 8000a5a:	d112      	bne.n	8000a82 <HAL_InitTick+0x66>
    {
      /* Configure the SysTick IRQ priority */
      if (TickPriority < (1UL << __NVIC_PRIO_BITS))
 8000a5c:	687b      	ldr	r3, [r7, #4]
 8000a5e:	2b03      	cmp	r3, #3
 8000a60:	d80a      	bhi.n	8000a78 <HAL_InitTick+0x5c>
      {
        HAL_NVIC_SetPriority(SysTick_IRQn, TickPriority, 0U);
 8000a62:	6879      	ldr	r1, [r7, #4]
 8000a64:	2301      	movs	r3, #1
 8000a66:	425b      	negs	r3, r3
 8000a68:	2200      	movs	r2, #0
 8000a6a:	0018      	movs	r0, r3
 8000a6c:	f000 f8f2 	bl	8000c54 <HAL_NVIC_SetPriority>
        uwTickPrio = TickPriority;
 8000a70:	4b0e      	ldr	r3, [pc, #56]	@ (8000aac <HAL_InitTick+0x90>)
 8000a72:	687a      	ldr	r2, [r7, #4]
 8000a74:	601a      	str	r2, [r3, #0]
 8000a76:	e00d      	b.n	8000a94 <HAL_InitTick+0x78>
      }
      else
      {
        status = HAL_ERROR;
 8000a78:	230f      	movs	r3, #15
 8000a7a:	18fb      	adds	r3, r7, r3
 8000a7c:	2201      	movs	r2, #1
 8000a7e:	701a      	strb	r2, [r3, #0]
 8000a80:	e008      	b.n	8000a94 <HAL_InitTick+0x78>
      }
    }
    else
    {
      status = HAL_ERROR;
 8000a82:	230f      	movs	r3, #15
 8000a84:	18fb      	adds	r3, r7, r3
 8000a86:	2201      	movs	r2, #1
 8000a88:	701a      	strb	r2, [r3, #0]
 8000a8a:	e003      	b.n	8000a94 <HAL_InitTick+0x78>
    }
  }
  else
  {
    status = HAL_ERROR;
 8000a8c:	230f      	movs	r3, #15
 8000a8e:	18fb      	adds	r3, r7, r3
 8000a90:	2201      	movs	r2, #1
 8000a92:	701a      	strb	r2, [r3, #0]
  }

  /* Return function status */
  return status;
 8000a94:	230f      	movs	r3, #15
 8000a96:	18fb      	adds	r3, r7, r3
 8000a98:	781b      	ldrb	r3, [r3, #0]
}
 8000a9a:	0018      	movs	r0, r3
 8000a9c:	46bd      	mov	sp, r7
 8000a9e:	b005      	add	sp, #20
 8000aa0:	bd90      	pop	{r4, r7, pc}
 8000aa2:	46c0      	nop			@ (mov r8, r8)
 8000aa4:	20000008 	.word	0x20000008
 8000aa8:	20000000 	.word	0x20000000
 8000aac:	20000004 	.word	0x20000004

08000ab0 <HAL_IncTick>:
  * @note This function is declared as __weak to be overwritten in case of other
  *      implementations in user file.
  * @retval None
  */
__weak void HAL_IncTick(void)
{
 8000ab0:	b580      	push	{r7, lr}
 8000ab2:	af00      	add	r7, sp, #0
  uwTick += (uint32_t)uwTickFreq;
 8000ab4:	4b05      	ldr	r3, [pc, #20]	@ (8000acc <HAL_IncTick+0x1c>)
 8000ab6:	781b      	ldrb	r3, [r3, #0]
 8000ab8:	001a      	movs	r2, r3
 8000aba:	4b05      	ldr	r3, [pc, #20]	@ (8000ad0 <HAL_IncTick+0x20>)
 8000abc:	681b      	ldr	r3, [r3, #0]
 8000abe:	18d2      	adds	r2, r2, r3
 8000ac0:	4b03      	ldr	r3, [pc, #12]	@ (8000ad0 <HAL_IncTick+0x20>)
 8000ac2:	601a      	str	r2, [r3, #0]
}
 8000ac4:	46c0      	nop			@ (mov r8, r8)
 8000ac6:	46bd      	mov	sp, r7
 8000ac8:	bd80      	pop	{r7, pc}
 8000aca:	46c0      	nop			@ (mov r8, r8)
 8000acc:	20000008 	.word	0x20000008
 8000ad0:	200000bc 	.word	0x200000bc

08000ad4 <HAL_GetTick>:
  * @note This function is declared as __weak to be overwritten in case of other
  *       implementations in user file.
  * @retval tick value
  */
__weak uint32_t HAL_GetTick(void)
{
 8000ad4:	b580      	push	{r7, lr}
 8000ad6:	af00      	add	r7, sp, #0
  return uwTick;
 8000ad8:	4b02      	ldr	r3, [pc, #8]	@ (8000ae4 <HAL_GetTick+0x10>)
 8000ada:	681b      	ldr	r3, [r3, #0]
}
 8000adc:	0018      	movs	r0, r3
 8000ade:	46bd      	mov	sp, r7
 8000ae0:	bd80      	pop	{r7, pc}
 8000ae2:	46c0      	nop			@ (mov r8, r8)
 8000ae4:	200000bc 	.word	0x200000bc

08000ae8 <HAL_Delay>:
  *       implementations in user file.
  * @param Delay  specifies the delay time length, in milliseconds.
  * @retval None
  */
__weak void HAL_Delay(uint32_t Delay)
{
 8000ae8:	b580      	push	{r7, lr}
 8000aea:	b084      	sub	sp, #16
 8000aec:	af00      	add	r7, sp, #0
 8000aee:	6078      	str	r0, [r7, #4]
  uint32_t tickstart = HAL_GetTick();
 8000af0:	f7ff fff0 	bl	8000ad4 <HAL_GetTick>
 8000af4:	0003      	movs	r3, r0
 8000af6:	60bb      	str	r3, [r7, #8]
  uint32_t wait = Delay;
 8000af8:	687b      	ldr	r3, [r7, #4]
 8000afa:	60fb      	str	r3, [r7, #12]

  /* Add a freq to guarantee minimum wait */
  if (wait < HAL_MAX_DELAY)
 8000afc:	68fb      	ldr	r3, [r7, #12]
 8000afe:	3301      	adds	r3, #1
 8000b00:	d005      	beq.n	8000b0e <HAL_Delay+0x26>
  {
    wait += (uint32_t)(uwTickFreq);
 8000b02:	4b0a      	ldr	r3, [pc, #40]	@ (8000b2c <HAL_Delay+0x44>)
 8000b04:	781b      	ldrb	r3, [r3, #0]
 8000b06:	001a      	movs	r2, r3
 8000b08:	68fb      	ldr	r3, [r7, #12]
 8000b0a:	189b      	adds	r3, r3, r2
 8000b0c:	60fb      	str	r3, [r7, #12]
  }

  while ((HAL_GetTick() - tickstart) < wait)
 8000b0e:	46c0      	nop			@ (mov r8, r8)
 8000b10:	f7ff ffe0 	bl	8000ad4 <HAL_GetTick>
 8000b14:	0002      	movs	r2, r0
 8000b16:	68bb      	ldr	r3, [r7, #8]
 8000b18:	1ad3      	subs	r3, r2, r3
 8000b1a:	68fa      	ldr	r2, [r7, #12]
 8000b1c:	429a      	cmp	r2, r3
 8000b1e:	d8f7      	bhi.n	8000b10 <HAL_Delay+0x28>
  {
  }
}
 8000b20:	46c0      	nop			@ (mov r8, r8)
 8000b22:	46c0      	nop			@ (mov r8, r8)
 8000b24:	46bd      	mov	sp, r7
 8000b26:	b004      	add	sp, #16
 8000b28:	bd80      	pop	{r7, pc}
 8000b2a:	46c0      	nop			@ (mov r8, r8)
 8000b2c:	20000008 	.word	0x20000008

08000b30 <__NVIC_SetPriority>:
  \param [in]      IRQn  Interrupt number.
  \param [in]  priority  Priority to set.
  \note    The priority cannot be set for every processor exception.
 */
__STATIC_INLINE void __NVIC_SetPriority(IRQn_Type IRQn, uint32_t priority)
{
 8000b30:	b590      	push	{r4, r7, lr}
 8000b32:	b083      	sub	sp, #12
 8000b34:	af00      	add	r7, sp, #0
 8000b36:	0002      	movs	r2, r0
 8000b38:	6039      	str	r1, [r7, #0]
 8000b3a:	1dfb      	adds	r3, r7, #7
 8000b3c:	701a      	strb	r2, [r3, #0]
  if ((int32_t)(IRQn) >= 0)
 8000b3e:	1dfb      	adds	r3, r7, #7
 8000b40:	781b      	ldrb	r3, [r3, #0]
 8000b42:	2b7f      	cmp	r3, #127	@ 0x7f
 8000b44:	d828      	bhi.n	8000b98 <__NVIC_SetPriority+0x68>
  {
    NVIC->IP[_IP_IDX(IRQn)]  = ((uint32_t)(NVIC->IP[_IP_IDX(IRQn)]  & ~(0xFFUL << _BIT_SHIFT(IRQn))) |
 8000b46:	4a2f      	ldr	r2, [pc, #188]	@ (8000c04 <__NVIC_SetPriority+0xd4>)
 8000b48:	1dfb      	adds	r3, r7, #7
 8000b4a:	781b      	ldrb	r3, [r3, #0]
 8000b4c:	b25b      	sxtb	r3, r3
 8000b4e:	089b      	lsrs	r3, r3, #2
 8000b50:	33c0      	adds	r3, #192	@ 0xc0
 8000b52:	009b      	lsls	r3, r3, #2
 8000b54:	589b      	ldr	r3, [r3, r2]
 8000b56:	1dfa      	adds	r2, r7, #7
 8000b58:	7812      	ldrb	r2, [r2, #0]
 8000b5a:	0011      	movs	r1, r2
 8000b5c:	2203      	movs	r2, #3
 8000b5e:	400a      	ands	r2, r1
 8000b60:	00d2      	lsls	r2, r2, #3
 8000b62:	21ff      	movs	r1, #255	@ 0xff
 8000b64:	4091      	lsls	r1, r2
 8000b66:	000a      	movs	r2, r1
 8000b68:	43d2      	mvns	r2, r2
 8000b6a:	401a      	ands	r2, r3
 8000b6c:	0011      	movs	r1, r2
       (((priority << (8U - __NVIC_PRIO_BITS)) & (uint32_t)0xFFUL) << _BIT_SHIFT(IRQn)));
 8000b6e:	683b      	ldr	r3, [r7, #0]
 8000b70:	019b      	lsls	r3, r3, #6
 8000b72:	22ff      	movs	r2, #255	@ 0xff
 8000b74:	401a      	ands	r2, r3
 8000b76:	1dfb      	adds	r3, r7, #7
 8000b78:	781b      	ldrb	r3, [r3, #0]
 8000b7a:	0018      	movs	r0, r3
 8000b7c:	2303      	movs	r3, #3
 8000b7e:	4003      	ands	r3, r0
 8000b80:	00db      	lsls	r3, r3, #3
 8000b82:	409a      	lsls	r2, r3
    NVIC->IP[_IP_IDX(IRQn)]  = ((uint32_t)(NVIC->IP[_IP_IDX(IRQn)]  & ~(0xFFUL << _BIT_SHIFT(IRQn))) |
 8000b84:	481f      	ldr	r0, [pc, #124]	@ (8000c04 <__NVIC_SetPriority+0xd4>)
 8000b86:	1dfb      	adds	r3, r7, #7
 8000b88:	781b      	ldrb	r3, [r3, #0]
 8000b8a:	b25b      	sxtb	r3, r3
 8000b8c:	089b      	lsrs	r3, r3, #2
 8000b8e:	430a      	orrs	r2, r1
 8000b90:	33c0      	adds	r3, #192	@ 0xc0
 8000b92:	009b      	lsls	r3, r3, #2
 8000b94:	501a      	str	r2, [r3, r0]
  else
  {
    SCB->SHP[_SHP_IDX(IRQn)] = ((uint32_t)(SCB->SHP[_SHP_IDX(IRQn)] & ~(0xFFUL << _BIT_SHIFT(IRQn))) |
       (((priority << (8U - __NVIC_PRIO_BITS)) & (uint32_t)0xFFUL) << _BIT_SHIFT(IRQn)));
  }
}
 8000b96:	e031      	b.n	8000bfc <__NVIC_SetPriority+0xcc>
    SCB->SHP[_SHP_IDX(IRQn)] = ((uint32_t)(SCB->SHP[_SHP_IDX(IRQn)] & ~(0xFFUL << _BIT_SHIFT(IRQn))) |
 8000b98:	4a1b      	ldr	r2, [pc, #108]	@ (8000c08 <__NVIC_SetPriority+0xd8>)
 8000b9a:	1dfb      	adds	r3, r7, #7
 8000b9c:	781b      	ldrb	r3, [r3, #0]
 8000b9e:	0019      	movs	r1, r3
 8000ba0:	230f      	movs	r3, #15
 8000ba2:	400b      	ands	r3, r1
 8000ba4:	3b08      	subs	r3, #8
 8000ba6:	089b      	lsrs	r3, r3, #2
 8000ba8:	3306      	adds	r3, #6
 8000baa:	009b      	lsls	r3, r3, #2
 8000bac:	18d3      	adds	r3, r2, r3
 8000bae:	3304      	adds	r3, #4
 8000bb0:	681b      	ldr	r3, [r3, #0]
 8000bb2:	1dfa      	adds	r2, r7, #7
 8000bb4:	7812      	ldrb	r2, [r2, #0]
 8000bb6:	0011      	movs	r1, r2
 8000bb8:	2203      	movs	r2, #3
 8000bba:	400a      	ands	r2, r1
 8000bbc:	00d2      	lsls	r2, r2, #3
 8000bbe:	21ff      	movs	r1, #255	@ 0xff
 8000bc0:	4091      	lsls	r1, r2
 8000bc2:	000a      	movs	r2, r1
 8000bc4:	43d2      	mvns	r2, r2
 8000bc6:	401a      	ands	r2, r3
 8000bc8:	0011      	movs	r1, r2
       (((priority << (8U - __NVIC_PRIO_BITS)) & (uint32_t)0xFFUL) << _BIT_SHIFT(IRQn)));
 8000bca:	683b      	ldr	r3, [r7, #0]
 8000bcc:	019b      	lsls	r3, r3, #6
 8000bce:	22ff      	movs	r2, #255	@ 0xff
 8000bd0:	401a      	ands	r2, r3
 8000bd2:	1dfb      	adds	r3, r7, #7
 8000bd4:	781b      	ldrb	r3, [r3, #0]
 8000bd6:	0018      	movs	r0, r3
 8000bd8:	2303      	movs	r3, #3
 8000bda:	4003      	ands	r3, r0
 8000bdc:	00db      	lsls	r3, r3, #3
 8000bde:	409a      	lsls	r2, r3
    SCB->SHP[_SHP_IDX(IRQn)] = ((uint32_t)(SCB->SHP[_SHP_IDX(IRQn)] & ~(0xFFUL << _BIT_SHIFT(IRQn))) |
 8000be0:	4809      	ldr	r0, [pc, #36]	@ (8000c08 <__NVIC_SetPriority+0xd8>)
 8000be2:	1dfb      	adds	r3, r7, #7
 8000be4:	781b      	ldrb	r3, [r3, #0]
 8000be6:	001c      	movs	r4, r3
 8000be8:	230f      	movs	r3, #15
 8000bea:	4023      	ands	r3, r4
 8000bec:	3b08      	subs	r3, #8
 8000bee:	089b      	lsrs	r3, r3, #2
 8000bf0:	430a      	orrs	r2, r1
 8000bf2:	3306      	adds	r3, #6
 8000bf4:	009b      	lsls	r3, r3, #2
 8000bf6:	18c3      	adds	r3, r0, r3
 8000bf8:	3304      	adds	r3, #4
 8000bfa:	601a      	str	r2, [r3, #0]
}
 8000bfc:	46c0      	nop			@ (mov r8, r8)
 8000bfe:	46bd      	mov	sp, r7
 8000c00:	b003      	add	sp, #12
 8000c02:	bd90      	pop	{r4, r7, pc}
 8000c04:	e000e100 	.word	0xe000e100
 8000c08:	e000ed00 	.word	0xe000ed00

08000c0c <SysTick_Config>:
  \note    When the variable <b>__Vendor_SysTickConfig</b> is set to 1, then the
           function <b>SysTick_Config</b> is not included. In this case, the file <b><i>device</i>.h</b>
           must contain a vendor-specific implementation of this function.
 */
__STATIC_INLINE uint32_t SysTick_Config(uint32_t ticks)
{
 8000c0c:	b580      	push	{r7, lr}
 8000c0e:	b082      	sub	sp, #8
 8000c10:	af00      	add	r7, sp, #0
 8000c12:	6078      	str	r0, [r7, #4]
  if ((ticks - 1UL) > SysTick_LOAD_RELOAD_Msk)
 8000c14:	687b      	ldr	r3, [r7, #4]
 8000c16:	1e5a      	subs	r2, r3, #1
 8000c18:	2380      	movs	r3, #128	@ 0x80
 8000c1a:	045b      	lsls	r3, r3, #17
 8000c1c:	429a      	cmp	r2, r3
 8000c1e:	d301      	bcc.n	8000c24 <SysTick_Config+0x18>
  {
    return (1UL);                                                   /* Reload value impossible */
 8000c20:	2301      	movs	r3, #1
 8000c22:	e010      	b.n	8000c46 <SysTick_Config+0x3a>
  }

  SysTick->LOAD  = (uint32_t)(ticks - 1UL);                         /* set reload register */
 8000c24:	4b0a      	ldr	r3, [pc, #40]	@ (8000c50 <SysTick_Config+0x44>)
 8000c26:	687a      	ldr	r2, [r7, #4]
 8000c28:	3a01      	subs	r2, #1
 8000c2a:	605a      	str	r2, [r3, #4]
  NVIC_SetPriority (SysTick_IRQn, (1UL << __NVIC_PRIO_BITS) - 1UL); /* set Priority for Systick Interrupt */
 8000c2c:	2301      	movs	r3, #1
 8000c2e:	425b      	negs	r3, r3
 8000c30:	2103      	movs	r1, #3
 8000c32:	0018      	movs	r0, r3
 8000c34:	f7ff ff7c 	bl	8000b30 <__NVIC_SetPriority>
  SysTick->VAL   = 0UL;                                             /* Load the SysTick Counter Value */
 8000c38:	4b05      	ldr	r3, [pc, #20]	@ (8000c50 <SysTick_Config+0x44>)
 8000c3a:	2200      	movs	r2, #0
 8000c3c:	609a      	str	r2, [r3, #8]
  SysTick->CTRL  = SysTick_CTRL_CLKSOURCE_Msk |
 8000c3e:	4b04      	ldr	r3, [pc, #16]	@ (8000c50 <SysTick_Config+0x44>)
 8000c40:	2207      	movs	r2, #7
 8000c42:	601a      	str	r2, [r3, #0]
                   SysTick_CTRL_TICKINT_Msk   |
                   SysTick_CTRL_ENABLE_Msk;                         /* Enable SysTick IRQ and SysTick Timer */
  return (0UL);                                                     /* Function successful */
 8000c44:	2300      	movs	r3, #0
}
 8000c46:	0018      	movs	r0, r3
 8000c48:	46bd      	mov	sp, r7
 8000c4a:	b002      	add	sp, #8
 8000c4c:	bd80      	pop	{r7, pc}
 8000c4e:	46c0      	nop			@ (mov r8, r8)
 8000c50:	e000e010 	.word	0xe000e010

08000c54 <HAL_NVIC_SetPriority>:
  *         with stm32g0xx devices, this parameter is a dummy value and it is ignored, because
  *         no subpriority supported in Cortex M0+ based products.
  * @retval None
  */
void HAL_NVIC_SetPriority(IRQn_Type IRQn, uint32_t PreemptPriority, uint32_t SubPriority)
{
 8000c54:	b580      	push	{r7, lr}
 8000c56:	b084      	sub	sp, #16
 8000c58:	af00      	add	r7, sp, #0
 8000c5a:	60b9      	str	r1, [r7, #8]
 8000c5c:	607a      	str	r2, [r7, #4]
 8000c5e:	210f      	movs	r1, #15
 8000c60:	187b      	adds	r3, r7, r1
 8000c62:	1c02      	adds	r2, r0, #0
 8000c64:	701a      	strb	r2, [r3, #0]
  /* Prevent unused argument(s) compilation warning */
  UNUSED(SubPriority);

  /* Check the parameters */
  assert_param(IS_NVIC_PREEMPTION_PRIORITY(PreemptPriority));
  NVIC_SetPriority(IRQn, PreemptPriority);
 8000c66:	68ba      	ldr	r2, [r7, #8]
 8000c68:	187b      	adds	r3, r7, r1
 8000c6a:	781b      	ldrb	r3, [r3, #0]
 8000c6c:	b25b      	sxtb	r3, r3
 8000c6e:	0011      	movs	r1, r2
 8000c70:	0018      	movs	r0, r3
 8000c72:	f7ff ff5d 	bl	8000b30 <__NVIC_SetPriority>
}
 8000c76:	46c0      	nop			@ (mov r8, r8)
 8000c78:	46bd      	mov	sp, r7
 8000c7a:	b004      	add	sp, #16
 8000c7c:	bd80      	pop	{r7, pc}

08000c7e <HAL_SYSTICK_Config>:
  * @param  TicksNumb Specifies the ticks Number of ticks between two interrupts.
  * @retval status:  - 0  Function succeeded.
  *                  - 1  Function failed.
  */
uint32_t HAL_SYSTICK_Config(uint32_t TicksNumb)
{
 8000c7e:	b580      	push	{r7, lr}
 8000c80:	b082      	sub	sp, #8
 8000c82:	af00      	add	r7, sp, #0
 8000c84:	6078      	str	r0, [r7, #4]
  return SysTick_Config(TicksNumb);
 8000c86:	687b      	ldr	r3, [r7, #4]
 8000c88:	0018      	movs	r0, r3
 8000c8a:	f7ff ffbf 	bl	8000c0c <SysTick_Config>
 8000c8e:	0003      	movs	r3, r0
}
 8000c90:	0018      	movs	r0, r3
 8000c92:	46bd      	mov	sp, r7
 8000c94:	b002      	add	sp, #8
 8000c96:	bd80      	pop	{r7, pc}

08000c98 <HAL_GPIO_Init>:
  * @param  GPIO_Init pointer to a GPIO_InitTypeDef structure that contains
  *         the configuration information for the specified GPIO peripheral.
  * @retval None
  */
void HAL_GPIO_Init(GPIO_TypeDef  *GPIOx, GPIO_InitTypeDef *GPIO_Init)
{
 8000c98:	b580      	push	{r7, lr}
 8000c9a:	b086      	sub	sp, #24
 8000c9c:	af00      	add	r7, sp, #0
 8000c9e:	6078      	str	r0, [r7, #4]
 8000ca0:	6039      	str	r1, [r7, #0]
  uint32_t position = 0x00u;
 8000ca2:	2300      	movs	r3, #0
 8000ca4:	617b      	str	r3, [r7, #20]
  assert_param(IS_GPIO_ALL_INSTANCE(GPIOx));
  assert_param(IS_GPIO_PIN(GPIO_Init->Pin));
  assert_param(IS_GPIO_MODE(GPIO_Init->Mode));

  /* Configure the port pins */
  while (((GPIO_Init->Pin) >> position) != 0x00u)
 8000ca6:	e147      	b.n	8000f38 <HAL_GPIO_Init+0x2a0>
  {
    /* Get current io position */
    iocurrent = (GPIO_Init->Pin) & (1uL << position);
 8000ca8:	683b      	ldr	r3, [r7, #0]
 8000caa:	681b      	ldr	r3, [r3, #0]
 8000cac:	2101      	movs	r1, #1
 8000cae:	697a      	ldr	r2, [r7, #20]
 8000cb0:	4091      	lsls	r1, r2
 8000cb2:	000a      	movs	r2, r1
 8000cb4:	4013      	ands	r3, r2
 8000cb6:	60fb      	str	r3, [r7, #12]

    if (iocurrent != 0x00u)
 8000cb8:	68fb      	ldr	r3, [r7, #12]
 8000cba:	2b00      	cmp	r3, #0
 8000cbc:	d100      	bne.n	8000cc0 <HAL_GPIO_Init+0x28>
 8000cbe:	e138      	b.n	8000f32 <HAL_GPIO_Init+0x29a>
    {
      /*--------------------- GPIO Mode Configuration ------------------------*/
      /* In case of Output or Alternate function mode selection */
      if (((GPIO_Init->Mode & GPIO_MODE) == MODE_OUTPUT) || ((GPIO_Init->Mode & GPIO_MODE) == MODE_AF))
 8000cc0:	683b      	ldr	r3, [r7, #0]
 8000cc2:	685b      	ldr	r3, [r3, #4]
 8000cc4:	2203      	movs	r2, #3
 8000cc6:	4013      	ands	r3, r2
 8000cc8:	2b01      	cmp	r3, #1
 8000cca:	d005      	beq.n	8000cd8 <HAL_GPIO_Init+0x40>
 8000ccc:	683b      	ldr	r3, [r7, #0]
 8000cce:	685b      	ldr	r3, [r3, #4]
 8000cd0:	2203      	movs	r2, #3
 8000cd2:	4013      	ands	r3, r2
 8000cd4:	2b02      	cmp	r3, #2
 8000cd6:	d130      	bne.n	8000d3a <HAL_GPIO_Init+0xa2>
      {
        /* Check the Speed parameter */
        assert_param(IS_GPIO_SPEED(GPIO_Init->Speed));

        /* Configure the IO Speed */
        temp = GPIOx->OSPEEDR;
 8000cd8:	687b      	ldr	r3, [r7, #4]
 8000cda:	689b      	ldr	r3, [r3, #8]
 8000cdc:	613b      	str	r3, [r7, #16]
        temp &= ~(GPIO_OSPEEDR_OSPEED0 << (position * 2u));
 8000cde:	697b      	ldr	r3, [r7, #20]
 8000ce0:	005b      	lsls	r3, r3, #1
 8000ce2:	2203      	movs	r2, #3
 8000ce4:	409a      	lsls	r2, r3
 8000ce6:	0013      	movs	r3, r2
 8000ce8:	43da      	mvns	r2, r3
 8000cea:	693b      	ldr	r3, [r7, #16]
 8000cec:	4013      	ands	r3, r2
 8000cee:	613b      	str	r3, [r7, #16]
        temp |= (GPIO_Init->Speed << (position * 2u));
 8000cf0:	683b      	ldr	r3, [r7, #0]
 8000cf2:	68da      	ldr	r2, [r3, #12]
 8000cf4:	697b      	ldr	r3, [r7, #20]
 8000cf6:	005b      	lsls	r3, r3, #1
 8000cf8:	409a      	lsls	r2, r3
 8000cfa:	0013      	movs	r3, r2
 8000cfc:	693a      	ldr	r2, [r7, #16]
 8000cfe:	4313      	orrs	r3, r2
 8000d00:	613b      	str	r3, [r7, #16]
        GPIOx->OSPEEDR = temp;
 8000d02:	687b      	ldr	r3, [r7, #4]
 8000d04:	693a      	ldr	r2, [r7, #16]
 8000d06:	609a      	str	r2, [r3, #8]

        /* Configure the IO Output Type */
        temp = GPIOx->OTYPER;
 8000d08:	687b      	ldr	r3, [r7, #4]
 8000d0a:	685b      	ldr	r3, [r3, #4]
 8000d0c:	613b      	str	r3, [r7, #16]
        temp &= ~(GPIO_OTYPER_OT0 << position) ;
 8000d0e:	2201      	movs	r2, #1
 8000d10:	697b      	ldr	r3, [r7, #20]
 8000d12:	409a      	lsls	r2, r3
 8000d14:	0013      	movs	r3, r2
 8000d16:	43da      	mvns	r2, r3
 8000d18:	693b      	ldr	r3, [r7, #16]
 8000d1a:	4013      	ands	r3, r2
 8000d1c:	613b      	str	r3, [r7, #16]
        temp |= (((GPIO_Init->Mode & OUTPUT_TYPE) >> OUTPUT_TYPE_Pos) << position);
 8000d1e:	683b      	ldr	r3, [r7, #0]
 8000d20:	685b      	ldr	r3, [r3, #4]
 8000d22:	091b      	lsrs	r3, r3, #4
 8000d24:	2201      	movs	r2, #1
 8000d26:	401a      	ands	r2, r3
 8000d28:	697b      	ldr	r3, [r7, #20]
 8000d2a:	409a      	lsls	r2, r3
 8000d2c:	0013      	movs	r3, r2
 8000d2e:	693a      	ldr	r2, [r7, #16]
 8000d30:	4313      	orrs	r3, r2
 8000d32:	613b      	str	r3, [r7, #16]
        GPIOx->OTYPER = temp;
 8000d34:	687b      	ldr	r3, [r7, #4]
 8000d36:	693a      	ldr	r2, [r7, #16]
 8000d38:	605a      	str	r2, [r3, #4]
      }

      if ((GPIO_Init->Mode & GPIO_MODE) != MODE_ANALOG)
 8000d3a:	683b      	ldr	r3, [r7, #0]
 8000d3c:	685b      	ldr	r3, [r3, #4]
 8000d3e:	2203      	movs	r2, #3
 8000d40:	4013      	ands	r3, r2
 8000d42:	2b03      	cmp	r3, #3
 8000d44:	d017      	beq.n	8000d76 <HAL_GPIO_Init+0xde>
      {
        /* Check the Pull parameter */
        assert_param(IS_GPIO_PULL(GPIO_Init->Pull));

        /* Activate the Pull-up or Pull down resistor for the current IO */
        temp = GPIOx->PUPDR;
 8000d46:	687b      	ldr	r3, [r7, #4]
 8000d48:	68db      	ldr	r3, [r3, #12]
 8000d4a:	613b      	str	r3, [r7, #16]
        temp &= ~(GPIO_PUPDR_PUPD0 << (position * 2u));
 8000d4c:	697b      	ldr	r3, [r7, #20]
 8000d4e:	005b      	lsls	r3, r3, #1
 8000d50:	2203      	movs	r2, #3
 8000d52:	409a      	lsls	r2, r3
 8000d54:	0013      	movs	r3, r2
 8000d56:	43da      	mvns	r2, r3
 8000d58:	693b      	ldr	r3, [r7, #16]
 8000d5a:	4013      	ands	r3, r2
 8000d5c:	613b      	str	r3, [r7, #16]
        temp |= ((GPIO_Init->Pull) << (position * 2u));
 8000d5e:	683b      	ldr	r3, [r7, #0]
 8000d60:	689a      	ldr	r2, [r3, #8]
 8000d62:	697b      	ldr	r3, [r7, #20]
 8000d64:	005b      	lsls	r3, r3, #1
 8000d66:	409a      	lsls	r2, r3
 8000d68:	0013      	movs	r3, r2
 8000d6a:	693a      	ldr	r2, [r7, #16]
 8000d6c:	4313      	orrs	r3, r2
 8000d6e:	613b      	str	r3, [r7, #16]
        GPIOx->PUPDR = temp;
 8000d70:	687b      	ldr	r3, [r7, #4]
 8000d72:	693a      	ldr	r2, [r7, #16]
 8000d74:	60da      	str	r2, [r3, #12]
      }

      /* In case of Alternate function mode selection */
      if ((GPIO_Init->Mode & GPIO_MODE) == MODE_AF)
 8000d76:	683b      	ldr	r3, [r7, #0]
 8000d78:	685b      	ldr	r3, [r3, #4]
 8000d7a:	2203      	movs	r2, #3
 8000d7c:	4013      	ands	r3, r2
 8000d7e:	2b02      	cmp	r3, #2
 8000d80:	d123      	bne.n	8000dca <HAL_GPIO_Init+0x132>
        /* Check the Alternate function parameters */
        assert_param(IS_GPIO_AF_INSTANCE(GPIOx));
        assert_param(IS_GPIO_AF(GPIO_Init->Alternate));

        /* Configure Alternate function mapped with the current IO */
        temp = GPIOx->AFR[position >> 3u];
 8000d82:	697b      	ldr	r3, [r7, #20]
 8000d84:	08da      	lsrs	r2, r3, #3
 8000d86:	687b      	ldr	r3, [r7, #4]
 8000d88:	3208      	adds	r2, #8
 8000d8a:	0092      	lsls	r2, r2, #2
 8000d8c:	58d3      	ldr	r3, [r2, r3]
 8000d8e:	613b      	str	r3, [r7, #16]
        temp &= ~(0xFu << ((position & 0x07u) * 4u));
 8000d90:	697b      	ldr	r3, [r7, #20]
 8000d92:	2207      	movs	r2, #7
 8000d94:	4013      	ands	r3, r2
 8000d96:	009b      	lsls	r3, r3, #2
 8000d98:	220f      	movs	r2, #15
 8000d9a:	409a      	lsls	r2, r3
 8000d9c:	0013      	movs	r3, r2
 8000d9e:	43da      	mvns	r2, r3
 8000da0:	693b      	ldr	r3, [r7, #16]
 8000da2:	4013      	ands	r3, r2
 8000da4:	613b      	str	r3, [r7, #16]
        temp |= ((GPIO_Init->Alternate) << ((position & 0x07u) * 4u));
 8000da6:	683b      	ldr	r3, [r7, #0]
 8000da8:	691a      	ldr	r2, [r3, #16]
 8000daa:	697b      	ldr	r3, [r7, #20]
 8000dac:	2107      	movs	r1, #7
 8000dae:	400b      	ands	r3, r1
 8000db0:	009b      	lsls	r3, r3, #2
 8000db2:	409a      	lsls	r2, r3
 8000db4:	0013      	movs	r3, r2
 8000db6:	693a      	ldr	r2, [r7, #16]
 8000db8:	4313      	orrs	r3, r2
 8000dba:	613b      	str	r3, [r7, #16]
        GPIOx->AFR[position >> 3u] = temp;
 8000dbc:	697b      	ldr	r3, [r7, #20]
 8000dbe:	08da      	lsrs	r2, r3, #3
 8000dc0:	687b      	ldr	r3, [r7, #4]
 8000dc2:	3208      	adds	r2, #8
 8000dc4:	0092      	lsls	r2, r2, #2
 8000dc6:	6939      	ldr	r1, [r7, #16]
 8000dc8:	50d1      	str	r1, [r2, r3]
      }

      /* Configure IO Direction mode (Input, Output, Alternate or Analog) */
      temp = GPIOx->MODER;
 8000dca:	687b      	ldr	r3, [r7, #4]
 8000dcc:	681b      	ldr	r3, [r3, #0]
 8000dce:	613b      	str	r3, [r7, #16]
      temp &= ~(GPIO_MODER_MODE0 << (position * 2u));
 8000dd0:	697b      	ldr	r3, [r7, #20]
 8000dd2:	005b      	lsls	r3, r3, #1
 8000dd4:	2203      	movs	r2, #3
 8000dd6:	409a      	lsls	r2, r3
 8000dd8:	0013      	movs	r3, r2
 8000dda:	43da      	mvns	r2, r3
 8000ddc:	693b      	ldr	r3, [r7, #16]
 8000dde:	4013      	ands	r3, r2
 8000de0:	613b      	str	r3, [r7, #16]
      temp |= ((GPIO_Init->Mode & GPIO_MODE) << (position * 2u));
 8000de2:	683b      	ldr	r3, [r7, #0]
 8000de4:	685b      	ldr	r3, [r3, #4]
 8000de6:	2203      	movs	r2, #3
 8000de8:	401a      	ands	r2, r3
 8000dea:	697b      	ldr	r3, [r7, #20]
 8000dec:	005b      	lsls	r3, r3, #1
 8000dee:	409a      	lsls	r2, r3
 8000df0:	0013      	movs	r3, r2
 8000df2:	693a      	ldr	r2, [r7, #16]
 8000df4:	4313      	orrs	r3, r2
 8000df6:	613b      	str	r3, [r7, #16]
      GPIOx->MODER = temp;
 8000df8:	687b      	ldr	r3, [r7, #4]
 8000dfa:	693a      	ldr	r2, [r7, #16]
 8000dfc:	601a      	str	r2, [r3, #0]

      /*--------------------- EXTI Mode Configuration ------------------------*/
      /* Configure the External Interrupt or event for the current IO */
      if ((GPIO_Init->Mode & EXTI_MODE) != 0x00u)
 8000dfe:	683b      	ldr	r3, [r7, #0]
 8000e00:	685a      	ldr	r2, [r3, #4]
 8000e02:	23c0      	movs	r3, #192	@ 0xc0
 8000e04:	029b      	lsls	r3, r3, #10
 8000e06:	4013      	ands	r3, r2
 8000e08:	d100      	bne.n	8000e0c <HAL_GPIO_Init+0x174>
 8000e0a:	e092      	b.n	8000f32 <HAL_GPIO_Init+0x29a>
      {
        temp = EXTI->EXTICR[position >> 2u];
 8000e0c:	4a50      	ldr	r2, [pc, #320]	@ (8000f50 <HAL_GPIO_Init+0x2b8>)
 8000e0e:	697b      	ldr	r3, [r7, #20]
 8000e10:	089b      	lsrs	r3, r3, #2
 8000e12:	3318      	adds	r3, #24
 8000e14:	009b      	lsls	r3, r3, #2
 8000e16:	589b      	ldr	r3, [r3, r2]
 8000e18:	613b      	str	r3, [r7, #16]
        temp &= ~(0x0FuL << (8u * (position & 0x03u)));
 8000e1a:	697b      	ldr	r3, [r7, #20]
 8000e1c:	2203      	movs	r2, #3
 8000e1e:	4013      	ands	r3, r2
 8000e20:	00db      	lsls	r3, r3, #3
 8000e22:	220f      	movs	r2, #15
 8000e24:	409a      	lsls	r2, r3
 8000e26:	0013      	movs	r3, r2
 8000e28:	43da      	mvns	r2, r3
 8000e2a:	693b      	ldr	r3, [r7, #16]
 8000e2c:	4013      	ands	r3, r2
 8000e2e:	613b      	str	r3, [r7, #16]
        temp |= (GPIO_GET_INDEX(GPIOx) << (8u * (position & 0x03u)));
 8000e30:	687a      	ldr	r2, [r7, #4]
 8000e32:	23a0      	movs	r3, #160	@ 0xa0
 8000e34:	05db      	lsls	r3, r3, #23
 8000e36:	429a      	cmp	r2, r3
 8000e38:	d013      	beq.n	8000e62 <HAL_GPIO_Init+0x1ca>
 8000e3a:	687b      	ldr	r3, [r7, #4]
 8000e3c:	4a45      	ldr	r2, [pc, #276]	@ (8000f54 <HAL_GPIO_Init+0x2bc>)
 8000e3e:	4293      	cmp	r3, r2
 8000e40:	d00d      	beq.n	8000e5e <HAL_GPIO_Init+0x1c6>
 8000e42:	687b      	ldr	r3, [r7, #4]
 8000e44:	4a44      	ldr	r2, [pc, #272]	@ (8000f58 <HAL_GPIO_Init+0x2c0>)
 8000e46:	4293      	cmp	r3, r2
 8000e48:	d007      	beq.n	8000e5a <HAL_GPIO_Init+0x1c2>
 8000e4a:	687b      	ldr	r3, [r7, #4]
 8000e4c:	4a43      	ldr	r2, [pc, #268]	@ (8000f5c <HAL_GPIO_Init+0x2c4>)
 8000e4e:	4293      	cmp	r3, r2
 8000e50:	d101      	bne.n	8000e56 <HAL_GPIO_Init+0x1be>
 8000e52:	2303      	movs	r3, #3
 8000e54:	e006      	b.n	8000e64 <HAL_GPIO_Init+0x1cc>
 8000e56:	2305      	movs	r3, #5
 8000e58:	e004      	b.n	8000e64 <HAL_GPIO_Init+0x1cc>
 8000e5a:	2302      	movs	r3, #2
 8000e5c:	e002      	b.n	8000e64 <HAL_GPIO_Init+0x1cc>
 8000e5e:	2301      	movs	r3, #1
 8000e60:	e000      	b.n	8000e64 <HAL_GPIO_Init+0x1cc>
 8000e62:	2300      	movs	r3, #0
 8000e64:	697a      	ldr	r2, [r7, #20]
 8000e66:	2103      	movs	r1, #3
 8000e68:	400a      	ands	r2, r1
 8000e6a:	00d2      	lsls	r2, r2, #3
 8000e6c:	4093      	lsls	r3, r2
 8000e6e:	693a      	ldr	r2, [r7, #16]
 8000e70:	4313      	orrs	r3, r2
 8000e72:	613b      	str	r3, [r7, #16]
        EXTI->EXTICR[position >> 2u] = temp;
 8000e74:	4936      	ldr	r1, [pc, #216]	@ (8000f50 <HAL_GPIO_Init+0x2b8>)
 8000e76:	697b      	ldr	r3, [r7, #20]
 8000e78:	089b      	lsrs	r3, r3, #2
 8000e7a:	3318      	adds	r3, #24
 8000e7c:	009b      	lsls	r3, r3, #2
 8000e7e:	693a      	ldr	r2, [r7, #16]
 8000e80:	505a      	str	r2, [r3, r1]

        /* Clear Rising Falling edge configuration */
        temp = EXTI->RTSR1;
 8000e82:	4b33      	ldr	r3, [pc, #204]	@ (8000f50 <HAL_GPIO_Init+0x2b8>)
 8000e84:	681b      	ldr	r3, [r3, #0]
 8000e86:	613b      	str	r3, [r7, #16]
        temp &= ~(iocurrent);
 8000e88:	68fb      	ldr	r3, [r7, #12]
 8000e8a:	43da      	mvns	r2, r3
 8000e8c:	693b      	ldr	r3, [r7, #16]
 8000e8e:	4013      	ands	r3, r2
 8000e90:	613b      	str	r3, [r7, #16]
        if ((GPIO_Init->Mode & TRIGGER_RISING) != 0x00u)
 8000e92:	683b      	ldr	r3, [r7, #0]
 8000e94:	685a      	ldr	r2, [r3, #4]
 8000e96:	2380      	movs	r3, #128	@ 0x80
 8000e98:	035b      	lsls	r3, r3, #13
 8000e9a:	4013      	ands	r3, r2
 8000e9c:	d003      	beq.n	8000ea6 <HAL_GPIO_Init+0x20e>
        {
          temp |= iocurrent;
 8000e9e:	693a      	ldr	r2, [r7, #16]
 8000ea0:	68fb      	ldr	r3, [r7, #12]
 8000ea2:	4313      	orrs	r3, r2
 8000ea4:	613b      	str	r3, [r7, #16]
        }
        EXTI->RTSR1 = temp;
 8000ea6:	4b2a      	ldr	r3, [pc, #168]	@ (8000f50 <HAL_GPIO_Init+0x2b8>)
 8000ea8:	693a      	ldr	r2, [r7, #16]
 8000eaa:	601a      	str	r2, [r3, #0]

        temp = EXTI->FTSR1;
 8000eac:	4b28      	ldr	r3, [pc, #160]	@ (8000f50 <HAL_GPIO_Init+0x2b8>)
 8000eae:	685b      	ldr	r3, [r3, #4]
 8000eb0:	613b      	str	r3, [r7, #16]
        temp &= ~(iocurrent);
 8000eb2:	68fb      	ldr	r3, [r7, #12]
 8000eb4:	43da      	mvns	r2, r3
 8000eb6:	693b      	ldr	r3, [r7, #16]
 8000eb8:	4013      	ands	r3, r2
 8000eba:	613b      	str	r3, [r7, #16]
        if ((GPIO_Init->Mode & TRIGGER_FALLING) != 0x00u)
 8000ebc:	683b      	ldr	r3, [r7, #0]
 8000ebe:	685a      	ldr	r2, [r3, #4]
 8000ec0:	2380      	movs	r3, #128	@ 0x80
 8000ec2:	039b      	lsls	r3, r3, #14
 8000ec4:	4013      	ands	r3, r2
 8000ec6:	d003      	beq.n	8000ed0 <HAL_GPIO_Init+0x238>
        {
          temp |= iocurrent;
 8000ec8:	693a      	ldr	r2, [r7, #16]
 8000eca:	68fb      	ldr	r3, [r7, #12]
 8000ecc:	4313      	orrs	r3, r2
 8000ece:	613b      	str	r3, [r7, #16]
        }
        EXTI->FTSR1 = temp;
 8000ed0:	4b1f      	ldr	r3, [pc, #124]	@ (8000f50 <HAL_GPIO_Init+0x2b8>)
 8000ed2:	693a      	ldr	r2, [r7, #16]
 8000ed4:	605a      	str	r2, [r3, #4]

        /* Clear EXTI line configuration */
        temp = EXTI->EMR1;
 8000ed6:	4a1e      	ldr	r2, [pc, #120]	@ (8000f50 <HAL_GPIO_Init+0x2b8>)
 8000ed8:	2384      	movs	r3, #132	@ 0x84
 8000eda:	58d3      	ldr	r3, [r2, r3]
 8000edc:	613b      	str	r3, [r7, #16]
        temp &= ~(iocurrent);
 8000ede:	68fb      	ldr	r3, [r7, #12]
 8000ee0:	43da      	mvns	r2, r3
 8000ee2:	693b      	ldr	r3, [r7, #16]
 8000ee4:	4013      	ands	r3, r2
 8000ee6:	613b      	str	r3, [r7, #16]
        if ((GPIO_Init->Mode & EXTI_EVT) != 0x00u)
 8000ee8:	683b      	ldr	r3, [r7, #0]
 8000eea:	685a      	ldr	r2, [r3, #4]
 8000eec:	2380      	movs	r3, #128	@ 0x80
 8000eee:	029b      	lsls	r3, r3, #10
 8000ef0:	4013      	ands	r3, r2
 8000ef2:	d003      	beq.n	8000efc <HAL_GPIO_Init+0x264>
        {
          temp |= iocurrent;
 8000ef4:	693a      	ldr	r2, [r7, #16]
 8000ef6:	68fb      	ldr	r3, [r7, #12]
 8000ef8:	4313      	orrs	r3, r2
 8000efa:	613b      	str	r3, [r7, #16]
        }
        EXTI->EMR1 = temp;
 8000efc:	4914      	ldr	r1, [pc, #80]	@ (8000f50 <HAL_GPIO_Init+0x2b8>)
 8000efe:	2284      	movs	r2, #132	@ 0x84
 8000f00:	693b      	ldr	r3, [r7, #16]
 8000f02:	508b      	str	r3, [r1, r2]

        temp = EXTI->IMR1;
 8000f04:	4a12      	ldr	r2, [pc, #72]	@ (8000f50 <HAL_GPIO_Init+0x2b8>)
 8000f06:	2380      	movs	r3, #128	@ 0x80
 8000f08:	58d3      	ldr	r3, [r2, r3]
 8000f0a:	613b      	str	r3, [r7, #16]
        temp &= ~(iocurrent);
 8000f0c:	68fb      	ldr	r3, [r7, #12]
 8000f0e:	43da      	mvns	r2, r3
 8000f10:	693b      	ldr	r3, [r7, #16]
 8000f12:	4013      	ands	r3, r2
 8000f14:	613b      	str	r3, [r7, #16]
        if ((GPIO_Init->Mode & EXTI_IT) != 0x00u)
 8000f16:	683b      	ldr	r3, [r7, #0]
 8000f18:	685a      	ldr	r2, [r3, #4]
 8000f1a:	2380      	movs	r3, #128	@ 0x80
 8000f1c:	025b      	lsls	r3, r3, #9
 8000f1e:	4013      	ands	r3, r2
 8000f20:	d003      	beq.n	8000f2a <HAL_GPIO_Init+0x292>
        {
          temp |= iocurrent;
 8000f22:	693a      	ldr	r2, [r7, #16]
 8000f24:	68fb      	ldr	r3, [r7, #12]
 8000f26:	4313      	orrs	r3, r2
 8000f28:	613b      	str	r3, [r7, #16]
        }
        EXTI->IMR1 = temp;
 8000f2a:	4909      	ldr	r1, [pc, #36]	@ (8000f50 <HAL_GPIO_Init+0x2b8>)
 8000f2c:	2280      	movs	r2, #128	@ 0x80
 8000f2e:	693b      	ldr	r3, [r7, #16]
 8000f30:	508b      	str	r3, [r1, r2]
      }
    }

    position++;
 8000f32:	697b      	ldr	r3, [r7, #20]
 8000f34:	3301      	adds	r3, #1
 8000f36:	617b      	str	r3, [r7, #20]
  while (((GPIO_Init->Pin) >> position) != 0x00u)
 8000f38:	683b      	ldr	r3, [r7, #0]
 8000f3a:	681a      	ldr	r2, [r3, #0]
 8000f3c:	697b      	ldr	r3, [r7, #20]
 8000f3e:	40da      	lsrs	r2, r3
 8000f40:	1e13      	subs	r3, r2, #0
 8000f42:	d000      	beq.n	8000f46 <HAL_GPIO_Init+0x2ae>
 8000f44:	e6b0      	b.n	8000ca8 <HAL_GPIO_Init+0x10>
  }
}
 8000f46:	46c0      	nop			@ (mov r8, r8)
 8000f48:	46c0      	nop			@ (mov r8, r8)
 8000f4a:	46bd      	mov	sp, r7
 8000f4c:	b006      	add	sp, #24
 8000f4e:	bd80      	pop	{r7, pc}
 8000f50:	40021800 	.word	0x40021800
 8000f54:	50000400 	.word	0x50000400
 8000f58:	50000800 	.word	0x50000800
 8000f5c:	50000c00 	.word	0x50000c00

08000f60 <HAL_GPIO_WritePin>:
  *            @arg GPIO_PIN_RESET: to clear the port pin
  *            @arg GPIO_PIN_SET: to set the port pin
  * @retval None
  */
void HAL_GPIO_WritePin(GPIO_TypeDef *GPIOx, uint16_t GPIO_Pin, GPIO_PinState PinState)
{
 8000f60:	b580      	push	{r7, lr}
 8000f62:	b082      	sub	sp, #8
 8000f64:	af00      	add	r7, sp, #0
 8000f66:	6078      	str	r0, [r7, #4]
 8000f68:	0008      	movs	r0, r1
 8000f6a:	0011      	movs	r1, r2
 8000f6c:	1cbb      	adds	r3, r7, #2
 8000f6e:	1c02      	adds	r2, r0, #0
 8000f70:	801a      	strh	r2, [r3, #0]
 8000f72:	1c7b      	adds	r3, r7, #1
 8000f74:	1c0a      	adds	r2, r1, #0
 8000f76:	701a      	strb	r2, [r3, #0]
  /* Check the parameters */
  assert_param(IS_GPIO_PIN(GPIO_Pin));
  assert_param(IS_GPIO_PIN_ACTION(PinState));

  if (PinState != GPIO_PIN_RESET)
 8000f78:	1c7b      	adds	r3, r7, #1
 8000f7a:	781b      	ldrb	r3, [r3, #0]
 8000f7c:	2b00      	cmp	r3, #0
 8000f7e:	d004      	beq.n	8000f8a <HAL_GPIO_WritePin+0x2a>
  {
    GPIOx->BSRR = (uint32_t)GPIO_Pin;
 8000f80:	1cbb      	adds	r3, r7, #2
 8000f82:	881a      	ldrh	r2, [r3, #0]
 8000f84:	687b      	ldr	r3, [r7, #4]
 8000f86:	619a      	str	r2, [r3, #24]
  }
  else
  {
    GPIOx->BRR = (uint32_t)GPIO_Pin;
  }
}
 8000f88:	e003      	b.n	8000f92 <HAL_GPIO_WritePin+0x32>
    GPIOx->BRR = (uint32_t)GPIO_Pin;
 8000f8a:	1cbb      	adds	r3, r7, #2
 8000f8c:	881a      	ldrh	r2, [r3, #0]
 8000f8e:	687b      	ldr	r3, [r7, #4]
 8000f90:	629a      	str	r2, [r3, #40]	@ 0x28
}
 8000f92:	46c0      	nop			@ (mov r8, r8)
 8000f94:	46bd      	mov	sp, r7
 8000f96:	b002      	add	sp, #8
 8000f98:	bd80      	pop	{r7, pc}
	...

08000f9c <HAL_PWR_EnableWakeUpPin>:
  * @note  PWR_WAKEUP_PINx and PWR_WAKEUP_PINx_HIGH are equivalent.
  * @note (*) availability depends on devices
  * @retval None
  */
void HAL_PWR_EnableWakeUpPin(uint32_t WakeUpPinPolarity)
{
 8000f9c:	b580      	push	{r7, lr}
 8000f9e:	b082      	sub	sp, #8
 8000fa0:	af00      	add	r7, sp, #0
 8000fa2:	6078      	str	r0, [r7, #4]
  assert_param(IS_PWR_WAKEUP_PIN(WakeUpPinPolarity));

  /* Specifies the Wake-Up pin polarity for the event detection
    (rising or falling edge) */
  MODIFY_REG(PWR->CR4, (PWR_CR4_WP & WakeUpPinPolarity), (WakeUpPinPolarity >> PWR_WUP_POLARITY_SHIFT));
 8000fa4:	4b0c      	ldr	r3, [pc, #48]	@ (8000fd8 <HAL_PWR_EnableWakeUpPin+0x3c>)
 8000fa6:	68db      	ldr	r3, [r3, #12]
 8000fa8:	687a      	ldr	r2, [r7, #4]
 8000faa:	213b      	movs	r1, #59	@ 0x3b
 8000fac:	400a      	ands	r2, r1
 8000fae:	43d2      	mvns	r2, r2
 8000fb0:	401a      	ands	r2, r3
 8000fb2:	0011      	movs	r1, r2
 8000fb4:	687b      	ldr	r3, [r7, #4]
 8000fb6:	0a1a      	lsrs	r2, r3, #8
 8000fb8:	4b07      	ldr	r3, [pc, #28]	@ (8000fd8 <HAL_PWR_EnableWakeUpPin+0x3c>)
 8000fba:	430a      	orrs	r2, r1
 8000fbc:	60da      	str	r2, [r3, #12]

  /* Enable wake-up pin */
  SET_BIT(PWR->CR3, (PWR_CR3_EWUP & WakeUpPinPolarity));
 8000fbe:	4b06      	ldr	r3, [pc, #24]	@ (8000fd8 <HAL_PWR_EnableWakeUpPin+0x3c>)
 8000fc0:	6899      	ldr	r1, [r3, #8]
 8000fc2:	687b      	ldr	r3, [r7, #4]
 8000fc4:	223b      	movs	r2, #59	@ 0x3b
 8000fc6:	401a      	ands	r2, r3
 8000fc8:	4b03      	ldr	r3, [pc, #12]	@ (8000fd8 <HAL_PWR_EnableWakeUpPin+0x3c>)
 8000fca:	430a      	orrs	r2, r1
 8000fcc:	609a      	str	r2, [r3, #8]
}
 8000fce:	46c0      	nop			@ (mov r8, r8)
 8000fd0:	46bd      	mov	sp, r7
 8000fd2:	b002      	add	sp, #8
 8000fd4:	bd80      	pop	{r7, pc}
 8000fd6:	46c0      	nop			@ (mov r8, r8)
 8000fd8:	40007000 	.word	0x40007000

08000fdc <HAL_PWR_EnterSTANDBYMode>:
  *         APC bit is set through HAL_PWREx_EnablePullUpPullDownConfig() API.
  * @note   Sram content can be kept setting RRS through HAL_PWREx_EnableSRAMRetention()
  * @retval None
  */
void HAL_PWR_EnterSTANDBYMode(void)
{
 8000fdc:	b580      	push	{r7, lr}
 8000fde:	af00      	add	r7, sp, #0
  /* Set Stand-by mode */
  MODIFY_REG(PWR->CR1, PWR_CR1_LPMS, PWR_LOWPOWERMODE_STANDBY);
 8000fe0:	4b09      	ldr	r3, [pc, #36]	@ (8001008 <HAL_PWR_EnterSTANDBYMode+0x2c>)
 8000fe2:	681b      	ldr	r3, [r3, #0]
 8000fe4:	2207      	movs	r2, #7
 8000fe6:	4393      	bics	r3, r2
 8000fe8:	001a      	movs	r2, r3
 8000fea:	4b07      	ldr	r3, [pc, #28]	@ (8001008 <HAL_PWR_EnterSTANDBYMode+0x2c>)
 8000fec:	2103      	movs	r1, #3
 8000fee:	430a      	orrs	r2, r1
 8000ff0:	601a      	str	r2, [r3, #0]

  /* Set SLEEPDEEP bit of Cortex System Control Register */
  SET_BIT(SCB->SCR, ((uint32_t)SCB_SCR_SLEEPDEEP_Msk));
 8000ff2:	4b06      	ldr	r3, [pc, #24]	@ (800100c <HAL_PWR_EnterSTANDBYMode+0x30>)
 8000ff4:	691a      	ldr	r2, [r3, #16]
 8000ff6:	4b05      	ldr	r3, [pc, #20]	@ (800100c <HAL_PWR_EnterSTANDBYMode+0x30>)
 8000ff8:	2104      	movs	r1, #4
 8000ffa:	430a      	orrs	r2, r1
 8000ffc:	611a      	str	r2, [r3, #16]
#if defined ( __CC_ARM)
  __force_stores();
#endif /* __CC_ARM */

  /* Request Wait For Interrupt */
  __WFI();
 8000ffe:	bf30      	wfi
}
 8001000:	46c0      	nop			@ (mov r8, r8)
 8001002:	46bd      	mov	sp, r7
 8001004:	bd80      	pop	{r7, pc}
 8001006:	46c0      	nop			@ (mov r8, r8)
 8001008:	40007000 	.word	0x40007000
 800100c:	e000ed00 	.word	0xe000ed00

08001010 <HAL_PWREx_ControlVoltageScaling>:
  *        cleared before returning the status. If the flag is not cleared within
  *        6 microseconds, HAL_TIMEOUT status is reported.
  * @retval HAL Status
  */
HAL_StatusTypeDef HAL_PWREx_ControlVoltageScaling(uint32_t VoltageScaling)
{
 8001010:	b580      	push	{r7, lr}
 8001012:	b084      	sub	sp, #16
 8001014:	af00      	add	r7, sp, #0
 8001016:	6078      	str	r0, [r7, #4]
  uint32_t wait_loop_index;

  assert_param(IS_PWR_VOLTAGE_SCALING_RANGE(VoltageScaling));

  /* Modify voltage scaling range */
  MODIFY_REG(PWR->CR1, PWR_CR1_VOS, VoltageScaling);
 8001018:	4b19      	ldr	r3, [pc, #100]	@ (8001080 <HAL_PWREx_ControlVoltageScaling+0x70>)
 800101a:	681b      	ldr	r3, [r3, #0]
 800101c:	4a19      	ldr	r2, [pc, #100]	@ (8001084 <HAL_PWREx_ControlVoltageScaling+0x74>)
 800101e:	4013      	ands	r3, r2
 8001020:	0019      	movs	r1, r3
 8001022:	4b17      	ldr	r3, [pc, #92]	@ (8001080 <HAL_PWREx_ControlVoltageScaling+0x70>)
 8001024:	687a      	ldr	r2, [r7, #4]
 8001026:	430a      	orrs	r2, r1
 8001028:	601a      	str	r2, [r3, #0]

  /* In case of Range 1 selected, we need to ensure that main regulator reaches new value */
  if (VoltageScaling == PWR_REGULATOR_VOLTAGE_SCALE1)
 800102a:	687a      	ldr	r2, [r7, #4]
 800102c:	2380      	movs	r3, #128	@ 0x80
 800102e:	009b      	lsls	r3, r3, #2
 8001030:	429a      	cmp	r2, r3
 8001032:	d11f      	bne.n	8001074 <HAL_PWREx_ControlVoltageScaling+0x64>
  {
    /* Set timeout value */
    wait_loop_index = ((PWR_VOSF_SETTING_DELAY_6_US * SystemCoreClock) / 1000000U) + 1U;
 8001034:	4b14      	ldr	r3, [pc, #80]	@ (8001088 <HAL_PWREx_ControlVoltageScaling+0x78>)
 8001036:	681a      	ldr	r2, [r3, #0]
 8001038:	0013      	movs	r3, r2
 800103a:	005b      	lsls	r3, r3, #1
 800103c:	189b      	adds	r3, r3, r2
 800103e:	005b      	lsls	r3, r3, #1
 8001040:	4912      	ldr	r1, [pc, #72]	@ (800108c <HAL_PWREx_ControlVoltageScaling+0x7c>)
 8001042:	0018      	movs	r0, r3
 8001044:	f7ff f85e 	bl	8000104 <__udivsi3>
 8001048:	0003      	movs	r3, r0
 800104a:	3301      	adds	r3, #1
 800104c:	60fb      	str	r3, [r7, #12]

    /* Wait until VOSF is reset */
    while (HAL_IS_BIT_SET(PWR->SR2, PWR_SR2_VOSF))
 800104e:	e008      	b.n	8001062 <HAL_PWREx_ControlVoltageScaling+0x52>
    {
      if (wait_loop_index != 0U)
 8001050:	68fb      	ldr	r3, [r7, #12]
 8001052:	2b00      	cmp	r3, #0
 8001054:	d003      	beq.n	800105e <HAL_PWREx_ControlVoltageScaling+0x4e>
      {
        wait_loop_index--;
 8001056:	68fb      	ldr	r3, [r7, #12]
 8001058:	3b01      	subs	r3, #1
 800105a:	60fb      	str	r3, [r7, #12]
 800105c:	e001      	b.n	8001062 <HAL_PWREx_ControlVoltageScaling+0x52>
      }
      else
      {
        return HAL_TIMEOUT;
 800105e:	2303      	movs	r3, #3
 8001060:	e009      	b.n	8001076 <HAL_PWREx_ControlVoltageScaling+0x66>
    while (HAL_IS_BIT_SET(PWR->SR2, PWR_SR2_VOSF))
 8001062:	4b07      	ldr	r3, [pc, #28]	@ (8001080 <HAL_PWREx_ControlVoltageScaling+0x70>)
 8001064:	695a      	ldr	r2, [r3, #20]
 8001066:	2380      	movs	r3, #128	@ 0x80
 8001068:	00db      	lsls	r3, r3, #3
 800106a:	401a      	ands	r2, r3
 800106c:	2380      	movs	r3, #128	@ 0x80
 800106e:	00db      	lsls	r3, r3, #3
 8001070:	429a      	cmp	r2, r3
 8001072:	d0ed      	beq.n	8001050 <HAL_PWREx_ControlVoltageScaling+0x40>
      }
    }
  }

  return HAL_OK;
 8001074:	2300      	movs	r3, #0
}
 8001076:	0018      	movs	r0, r3
 8001078:	46bd      	mov	sp, r7
 800107a:	b004      	add	sp, #16
 800107c:	bd80      	pop	{r7, pc}
 800107e:	46c0      	nop			@ (mov r8, r8)
 8001080:	40007000 	.word	0x40007000
 8001084:	fffff9ff 	.word	0xfffff9ff
 8001088:	20000000 	.word	0x20000000
 800108c:	000f4240 	.word	0x000f4240

08001090 <LL_RCC_GetAPB1Prescaler>:
  *         @arg @ref LL_RCC_APB1_DIV_4
  *         @arg @ref LL_RCC_APB1_DIV_8
  *         @arg @ref LL_RCC_APB1_DIV_16
  */
__STATIC_INLINE uint32_t LL_RCC_GetAPB1Prescaler(void)
{
 8001090:	b580      	push	{r7, lr}
 8001092:	af00      	add	r7, sp, #0
  return (uint32_t)(READ_BIT(RCC->CFGR, RCC_CFGR_PPRE));
 8001094:	4b03      	ldr	r3, [pc, #12]	@ (80010a4 <LL_RCC_GetAPB1Prescaler+0x14>)
 8001096:	689a      	ldr	r2, [r3, #8]
 8001098:	23e0      	movs	r3, #224	@ 0xe0
 800109a:	01db      	lsls	r3, r3, #7
 800109c:	4013      	ands	r3, r2
}
 800109e:	0018      	movs	r0, r3
 80010a0:	46bd      	mov	sp, r7
 80010a2:	bd80      	pop	{r7, pc}
 80010a4:	40021000 	.word	0x40021000

080010a8 <HAL_RCC_OscConfig>:
  *         supported by this function. User should request a transition to LSE Off
  *         first and then to LSE On or LSE Bypass.
  * @retval HAL status
  */
HAL_StatusTypeDef HAL_RCC_OscConfig(RCC_OscInitTypeDef  *RCC_OscInitStruct)
{
 80010a8:	b580      	push	{r7, lr}
 80010aa:	b088      	sub	sp, #32
 80010ac:	af00      	add	r7, sp, #0
 80010ae:	6078      	str	r0, [r7, #4]
  uint32_t tickstart;
  uint32_t temp_sysclksrc;
  uint32_t temp_pllckcfg;

  /* Check Null pointer */
  if (RCC_OscInitStruct == NULL)
 80010b0:	687b      	ldr	r3, [r7, #4]
 80010b2:	2b00      	cmp	r3, #0
 80010b4:	d101      	bne.n	80010ba <HAL_RCC_OscConfig+0x12>
  {
    return HAL_ERROR;
 80010b6:	2301      	movs	r3, #1
 80010b8:	e2fe      	b.n	80016b8 <HAL_RCC_OscConfig+0x610>

  /* Check the parameters */
  assert_param(IS_RCC_OSCILLATORTYPE(RCC_OscInitStruct->OscillatorType));

  /*------------------------------- HSE Configuration ------------------------*/
  if (((RCC_OscInitStruct->OscillatorType) & RCC_OSCILLATORTYPE_HSE) == RCC_OSCILLATORTYPE_HSE)
 80010ba:	687b      	ldr	r3, [r7, #4]
 80010bc:	681b      	ldr	r3, [r3, #0]
 80010be:	2201      	movs	r2, #1
 80010c0:	4013      	ands	r3, r2
 80010c2:	d100      	bne.n	80010c6 <HAL_RCC_OscConfig+0x1e>
 80010c4:	e07c      	b.n	80011c0 <HAL_RCC_OscConfig+0x118>
  {
    /* Check the parameters */
    assert_param(IS_RCC_HSE(RCC_OscInitStruct->HSEState));

    temp_sysclksrc = __HAL_RCC_GET_SYSCLK_SOURCE();
 80010c6:	4bc3      	ldr	r3, [pc, #780]	@ (80013d4 <HAL_RCC_OscConfig+0x32c>)
 80010c8:	689b      	ldr	r3, [r3, #8]
 80010ca:	2238      	movs	r2, #56	@ 0x38
 80010cc:	4013      	ands	r3, r2
 80010ce:	61bb      	str	r3, [r7, #24]
    temp_pllckcfg = __HAL_RCC_GET_PLL_OSCSOURCE();
 80010d0:	4bc0      	ldr	r3, [pc, #768]	@ (80013d4 <HAL_RCC_OscConfig+0x32c>)
 80010d2:	68db      	ldr	r3, [r3, #12]
 80010d4:	2203      	movs	r2, #3
 80010d6:	4013      	ands	r3, r2
 80010d8:	617b      	str	r3, [r7, #20]

    /* When the HSE is used as system clock or clock source for PLL in these cases it is not allowed to be disabled */
    if (((temp_sysclksrc == RCC_SYSCLKSOURCE_STATUS_PLLCLK) && (temp_pllckcfg == RCC_PLLSOURCE_HSE))
 80010da:	69bb      	ldr	r3, [r7, #24]
 80010dc:	2b10      	cmp	r3, #16
 80010de:	d102      	bne.n	80010e6 <HAL_RCC_OscConfig+0x3e>
 80010e0:	697b      	ldr	r3, [r7, #20]
 80010e2:	2b03      	cmp	r3, #3
 80010e4:	d002      	beq.n	80010ec <HAL_RCC_OscConfig+0x44>
        || (temp_sysclksrc == RCC_SYSCLKSOURCE_STATUS_HSE))
 80010e6:	69bb      	ldr	r3, [r7, #24]
 80010e8:	2b08      	cmp	r3, #8
 80010ea:	d10b      	bne.n	8001104 <HAL_RCC_OscConfig+0x5c>
    {
      if ((READ_BIT(RCC->CR, RCC_CR_HSERDY) != 0U) && (RCC_OscInitStruct->HSEState == RCC_HSE_OFF))
 80010ec:	4bb9      	ldr	r3, [pc, #740]	@ (80013d4 <HAL_RCC_OscConfig+0x32c>)
 80010ee:	681a      	ldr	r2, [r3, #0]
 80010f0:	2380      	movs	r3, #128	@ 0x80
 80010f2:	029b      	lsls	r3, r3, #10
 80010f4:	4013      	ands	r3, r2
 80010f6:	d062      	beq.n	80011be <HAL_RCC_OscConfig+0x116>
 80010f8:	687b      	ldr	r3, [r7, #4]
 80010fa:	685b      	ldr	r3, [r3, #4]
 80010fc:	2b00      	cmp	r3, #0
 80010fe:	d15e      	bne.n	80011be <HAL_RCC_OscConfig+0x116>
      {
        return HAL_ERROR;
 8001100:	2301      	movs	r3, #1
 8001102:	e2d9      	b.n	80016b8 <HAL_RCC_OscConfig+0x610>
      }
    }
    else
    {
      /* Set the new HSE configuration ---------------------------------------*/
      __HAL_RCC_HSE_CONFIG(RCC_OscInitStruct->HSEState);
 8001104:	687b      	ldr	r3, [r7, #4]
 8001106:	685a      	ldr	r2, [r3, #4]
 8001108:	2380      	movs	r3, #128	@ 0x80
 800110a:	025b      	lsls	r3, r3, #9
 800110c:	429a      	cmp	r2, r3
 800110e:	d107      	bne.n	8001120 <HAL_RCC_OscConfig+0x78>
 8001110:	4bb0      	ldr	r3, [pc, #704]	@ (80013d4 <HAL_RCC_OscConfig+0x32c>)
 8001112:	681a      	ldr	r2, [r3, #0]
 8001114:	4baf      	ldr	r3, [pc, #700]	@ (80013d4 <HAL_RCC_OscConfig+0x32c>)
 8001116:	2180      	movs	r1, #128	@ 0x80
 8001118:	0249      	lsls	r1, r1, #9
 800111a:	430a      	orrs	r2, r1
 800111c:	601a      	str	r2, [r3, #0]
 800111e:	e020      	b.n	8001162 <HAL_RCC_OscConfig+0xba>
 8001120:	687b      	ldr	r3, [r7, #4]
 8001122:	685a      	ldr	r2, [r3, #4]
 8001124:	23a0      	movs	r3, #160	@ 0xa0
 8001126:	02db      	lsls	r3, r3, #11
 8001128:	429a      	cmp	r2, r3
 800112a:	d10e      	bne.n	800114a <HAL_RCC_OscConfig+0xa2>
 800112c:	4ba9      	ldr	r3, [pc, #676]	@ (80013d4 <HAL_RCC_OscConfig+0x32c>)
 800112e:	681a      	ldr	r2, [r3, #0]
 8001130:	4ba8      	ldr	r3, [pc, #672]	@ (80013d4 <HAL_RCC_OscConfig+0x32c>)
 8001132:	2180      	movs	r1, #128	@ 0x80
 8001134:	02c9      	lsls	r1, r1, #11
 8001136:	430a      	orrs	r2, r1
 8001138:	601a      	str	r2, [r3, #0]
 800113a:	4ba6      	ldr	r3, [pc, #664]	@ (80013d4 <HAL_RCC_OscConfig+0x32c>)
 800113c:	681a      	ldr	r2, [r3, #0]
 800113e:	4ba5      	ldr	r3, [pc, #660]	@ (80013d4 <HAL_RCC_OscConfig+0x32c>)
 8001140:	2180      	movs	r1, #128	@ 0x80
 8001142:	0249      	lsls	r1, r1, #9
 8001144:	430a      	orrs	r2, r1
 8001146:	601a      	str	r2, [r3, #0]
 8001148:	e00b      	b.n	8001162 <HAL_RCC_OscConfig+0xba>
 800114a:	4ba2      	ldr	r3, [pc, #648]	@ (80013d4 <HAL_RCC_OscConfig+0x32c>)
 800114c:	681a      	ldr	r2, [r3, #0]
 800114e:	4ba1      	ldr	r3, [pc, #644]	@ (80013d4 <HAL_RCC_OscConfig+0x32c>)
 8001150:	49a1      	ldr	r1, [pc, #644]	@ (80013d8 <HAL_RCC_OscConfig+0x330>)
 8001152:	400a      	ands	r2, r1
 8001154:	601a      	str	r2, [r3, #0]
 8001156:	4b9f      	ldr	r3, [pc, #636]	@ (80013d4 <HAL_RCC_OscConfig+0x32c>)
 8001158:	681a      	ldr	r2, [r3, #0]
 800115a:	4b9e      	ldr	r3, [pc, #632]	@ (80013d4 <HAL_RCC_OscConfig+0x32c>)
 800115c:	499f      	ldr	r1, [pc, #636]	@ (80013dc <HAL_RCC_OscConfig+0x334>)
 800115e:	400a      	ands	r2, r1
 8001160:	601a      	str	r2, [r3, #0]

      /* Check the HSE State */
      if (RCC_OscInitStruct->HSEState != RCC_HSE_OFF)
 8001162:	687b      	ldr	r3, [r7, #4]
 8001164:	685b      	ldr	r3, [r3, #4]
 8001166:	2b00      	cmp	r3, #0
 8001168:	d014      	beq.n	8001194 <HAL_RCC_OscConfig+0xec>
      {
        /* Get Start Tick*/
        tickstart = HAL_GetTick();
 800116a:	f7ff fcb3 	bl	8000ad4 <HAL_GetTick>
 800116e:	0003      	movs	r3, r0
 8001170:	613b      	str	r3, [r7, #16]

        /* Wait till HSE is ready */
        while (READ_BIT(RCC->CR, RCC_CR_HSERDY) == 0U)
 8001172:	e008      	b.n	8001186 <HAL_RCC_OscConfig+0xde>
        {
          if ((HAL_GetTick() - tickstart) > HSE_TIMEOUT_VALUE)
 8001174:	f7ff fcae 	bl	8000ad4 <HAL_GetTick>
 8001178:	0002      	movs	r2, r0
 800117a:	693b      	ldr	r3, [r7, #16]
 800117c:	1ad3      	subs	r3, r2, r3
 800117e:	2b64      	cmp	r3, #100	@ 0x64
 8001180:	d901      	bls.n	8001186 <HAL_RCC_OscConfig+0xde>
          {
            return HAL_TIMEOUT;
 8001182:	2303      	movs	r3, #3
 8001184:	e298      	b.n	80016b8 <HAL_RCC_OscConfig+0x610>
        while (READ_BIT(RCC->CR, RCC_CR_HSERDY) == 0U)
 8001186:	4b93      	ldr	r3, [pc, #588]	@ (80013d4 <HAL_RCC_OscConfig+0x32c>)
 8001188:	681a      	ldr	r2, [r3, #0]
 800118a:	2380      	movs	r3, #128	@ 0x80
 800118c:	029b      	lsls	r3, r3, #10
 800118e:	4013      	ands	r3, r2
 8001190:	d0f0      	beq.n	8001174 <HAL_RCC_OscConfig+0xcc>
 8001192:	e015      	b.n	80011c0 <HAL_RCC_OscConfig+0x118>
        }
      }
      else
      {
        /* Get Start Tick*/
        tickstart = HAL_GetTick();
 8001194:	f7ff fc9e 	bl	8000ad4 <HAL_GetTick>
 8001198:	0003      	movs	r3, r0
 800119a:	613b      	str	r3, [r7, #16]

        /* Wait till HSE is disabled */
        while (READ_BIT(RCC->CR, RCC_CR_HSERDY) != 0U)
 800119c:	e008      	b.n	80011b0 <HAL_RCC_OscConfig+0x108>
        {
          if ((HAL_GetTick() - tickstart) > HSE_TIMEOUT_VALUE)
 800119e:	f7ff fc99 	bl	8000ad4 <HAL_GetTick>
 80011a2:	0002      	movs	r2, r0
 80011a4:	693b      	ldr	r3, [r7, #16]
 80011a6:	1ad3      	subs	r3, r2, r3
 80011a8:	2b64      	cmp	r3, #100	@ 0x64
 80011aa:	d901      	bls.n	80011b0 <HAL_RCC_OscConfig+0x108>
          {
            return HAL_TIMEOUT;
 80011ac:	2303      	movs	r3, #3
 80011ae:	e283      	b.n	80016b8 <HAL_RCC_OscConfig+0x610>
        while (READ_BIT(RCC->CR, RCC_CR_HSERDY) != 0U)
 80011b0:	4b88      	ldr	r3, [pc, #544]	@ (80013d4 <HAL_RCC_OscConfig+0x32c>)
 80011b2:	681a      	ldr	r2, [r3, #0]
 80011b4:	2380      	movs	r3, #128	@ 0x80
 80011b6:	029b      	lsls	r3, r3, #10
 80011b8:	4013      	ands	r3, r2
 80011ba:	d1f0      	bne.n	800119e <HAL_RCC_OscConfig+0xf6>
 80011bc:	e000      	b.n	80011c0 <HAL_RCC_OscConfig+0x118>
      if ((READ_BIT(RCC->CR, RCC_CR_HSERDY) != 0U) && (RCC_OscInitStruct->HSEState == RCC_HSE_OFF))
 80011be:	46c0      	nop			@ (mov r8, r8)
        }
      }
    }
  }
  /*----------------------------- HSI Configuration --------------------------*/
  if (((RCC_OscInitStruct->OscillatorType) & RCC_OSCILLATORTYPE_HSI) == RCC_OSCILLATORTYPE_HSI)
 80011c0:	687b      	ldr	r3, [r7, #4]
 80011c2:	681b      	ldr	r3, [r3, #0]
 80011c4:	2202      	movs	r2, #2
 80011c6:	4013      	ands	r3, r2
 80011c8:	d100      	bne.n	80011cc <HAL_RCC_OscConfig+0x124>
 80011ca:	e099      	b.n	8001300 <HAL_RCC_OscConfig+0x258>
    assert_param(IS_RCC_HSI(RCC_OscInitStruct->HSIState));
    assert_param(IS_RCC_HSI_CALIBRATION_VALUE(RCC_OscInitStruct->HSICalibrationValue));
    assert_param(IS_RCC_HSIDIV(RCC_OscInitStruct->HSIDiv));

    /* Check if HSI16 is used as system clock or as PLL source when PLL is selected as system clock */
    temp_sysclksrc = __HAL_RCC_GET_SYSCLK_SOURCE();
 80011cc:	4b81      	ldr	r3, [pc, #516]	@ (80013d4 <HAL_RCC_OscConfig+0x32c>)
 80011ce:	689b      	ldr	r3, [r3, #8]
 80011d0:	2238      	movs	r2, #56	@ 0x38
 80011d2:	4013      	ands	r3, r2
 80011d4:	61bb      	str	r3, [r7, #24]
    temp_pllckcfg = __HAL_RCC_GET_PLL_OSCSOURCE();
 80011d6:	4b7f      	ldr	r3, [pc, #508]	@ (80013d4 <HAL_RCC_OscConfig+0x32c>)
 80011d8:	68db      	ldr	r3, [r3, #12]
 80011da:	2203      	movs	r2, #3
 80011dc:	4013      	ands	r3, r2
 80011de:	617b      	str	r3, [r7, #20]
    if (((temp_sysclksrc == RCC_SYSCLKSOURCE_STATUS_PLLCLK) && (temp_pllckcfg == RCC_PLLSOURCE_HSI))
 80011e0:	69bb      	ldr	r3, [r7, #24]
 80011e2:	2b10      	cmp	r3, #16
 80011e4:	d102      	bne.n	80011ec <HAL_RCC_OscConfig+0x144>
 80011e6:	697b      	ldr	r3, [r7, #20]
 80011e8:	2b02      	cmp	r3, #2
 80011ea:	d002      	beq.n	80011f2 <HAL_RCC_OscConfig+0x14a>
        || (temp_sysclksrc == RCC_SYSCLKSOURCE_STATUS_HSI))
 80011ec:	69bb      	ldr	r3, [r7, #24]
 80011ee:	2b00      	cmp	r3, #0
 80011f0:	d135      	bne.n	800125e <HAL_RCC_OscConfig+0x1b6>
    {
      /* When HSI is used as system clock or as PLL input clock it can not be disabled */
      if ((READ_BIT(RCC->CR, RCC_CR_HSIRDY) != 0U) && (RCC_OscInitStruct->HSIState == RCC_HSI_OFF))
 80011f2:	4b78      	ldr	r3, [pc, #480]	@ (80013d4 <HAL_RCC_OscConfig+0x32c>)
 80011f4:	681a      	ldr	r2, [r3, #0]
 80011f6:	2380      	movs	r3, #128	@ 0x80
 80011f8:	00db      	lsls	r3, r3, #3
 80011fa:	4013      	ands	r3, r2
 80011fc:	d005      	beq.n	800120a <HAL_RCC_OscConfig+0x162>
 80011fe:	687b      	ldr	r3, [r7, #4]
 8001200:	68db      	ldr	r3, [r3, #12]
 8001202:	2b00      	cmp	r3, #0
 8001204:	d101      	bne.n	800120a <HAL_RCC_OscConfig+0x162>
      {
        return HAL_ERROR;
 8001206:	2301      	movs	r3, #1
 8001208:	e256      	b.n	80016b8 <HAL_RCC_OscConfig+0x610>
      }
      /* Otherwise, just the calibration is allowed */
      else
      {
        /* Adjusts the Internal High Speed oscillator (HSI) calibration value.*/
        __HAL_RCC_HSI_CALIBRATIONVALUE_ADJUST(RCC_OscInitStruct->HSICalibrationValue);
 800120a:	4b72      	ldr	r3, [pc, #456]	@ (80013d4 <HAL_RCC_OscConfig+0x32c>)
 800120c:	685b      	ldr	r3, [r3, #4]
 800120e:	4a74      	ldr	r2, [pc, #464]	@ (80013e0 <HAL_RCC_OscConfig+0x338>)
 8001210:	4013      	ands	r3, r2
 8001212:	0019      	movs	r1, r3
 8001214:	687b      	ldr	r3, [r7, #4]
 8001216:	695b      	ldr	r3, [r3, #20]
 8001218:	021a      	lsls	r2, r3, #8
 800121a:	4b6e      	ldr	r3, [pc, #440]	@ (80013d4 <HAL_RCC_OscConfig+0x32c>)
 800121c:	430a      	orrs	r2, r1
 800121e:	605a      	str	r2, [r3, #4]

        if (temp_sysclksrc == RCC_SYSCLKSOURCE_STATUS_HSI)
 8001220:	69bb      	ldr	r3, [r7, #24]
 8001222:	2b00      	cmp	r3, #0
 8001224:	d112      	bne.n	800124c <HAL_RCC_OscConfig+0x1a4>
        {
          /* Adjust the HSI16 division factor */
          __HAL_RCC_HSI_CONFIG(RCC_OscInitStruct->HSIDiv);
 8001226:	4b6b      	ldr	r3, [pc, #428]	@ (80013d4 <HAL_RCC_OscConfig+0x32c>)
 8001228:	681b      	ldr	r3, [r3, #0]
 800122a:	4a6e      	ldr	r2, [pc, #440]	@ (80013e4 <HAL_RCC_OscConfig+0x33c>)
 800122c:	4013      	ands	r3, r2
 800122e:	0019      	movs	r1, r3
 8001230:	687b      	ldr	r3, [r7, #4]
 8001232:	691a      	ldr	r2, [r3, #16]
 8001234:	4b67      	ldr	r3, [pc, #412]	@ (80013d4 <HAL_RCC_OscConfig+0x32c>)
 8001236:	430a      	orrs	r2, r1
 8001238:	601a      	str	r2, [r3, #0]

          /* Update the SystemCoreClock global variable with HSISYS value  */
          SystemCoreClock = (HSI_VALUE / (1UL << ((READ_BIT(RCC->CR, RCC_CR_HSIDIV)) >> RCC_CR_HSIDIV_Pos)));
 800123a:	4b66      	ldr	r3, [pc, #408]	@ (80013d4 <HAL_RCC_OscConfig+0x32c>)
 800123c:	681b      	ldr	r3, [r3, #0]
 800123e:	0adb      	lsrs	r3, r3, #11
 8001240:	2207      	movs	r2, #7
 8001242:	4013      	ands	r3, r2
 8001244:	4a68      	ldr	r2, [pc, #416]	@ (80013e8 <HAL_RCC_OscConfig+0x340>)
 8001246:	40da      	lsrs	r2, r3
 8001248:	4b68      	ldr	r3, [pc, #416]	@ (80013ec <HAL_RCC_OscConfig+0x344>)
 800124a:	601a      	str	r2, [r3, #0]
        }

        /* Adapt Systick interrupt period */
        if (HAL_InitTick(uwTickPrio) != HAL_OK)
 800124c:	4b68      	ldr	r3, [pc, #416]	@ (80013f0 <HAL_RCC_OscConfig+0x348>)
 800124e:	681b      	ldr	r3, [r3, #0]
 8001250:	0018      	movs	r0, r3
 8001252:	f7ff fbe3 	bl	8000a1c <HAL_InitTick>
 8001256:	1e03      	subs	r3, r0, #0
 8001258:	d051      	beq.n	80012fe <HAL_RCC_OscConfig+0x256>
        {
          return HAL_ERROR;
 800125a:	2301      	movs	r3, #1
 800125c:	e22c      	b.n	80016b8 <HAL_RCC_OscConfig+0x610>
      }
    }
    else
    {
      /* Check the HSI State */
      if (RCC_OscInitStruct->HSIState != RCC_HSI_OFF)
 800125e:	687b      	ldr	r3, [r7, #4]
 8001260:	68db      	ldr	r3, [r3, #12]
 8001262:	2b00      	cmp	r3, #0
 8001264:	d030      	beq.n	80012c8 <HAL_RCC_OscConfig+0x220>
      {
        /* Configure the HSI16 division factor */
        __HAL_RCC_HSI_CONFIG(RCC_OscInitStruct->HSIDiv);
 8001266:	4b5b      	ldr	r3, [pc, #364]	@ (80013d4 <HAL_RCC_OscConfig+0x32c>)
 8001268:	681b      	ldr	r3, [r3, #0]
 800126a:	4a5e      	ldr	r2, [pc, #376]	@ (80013e4 <HAL_RCC_OscConfig+0x33c>)
 800126c:	4013      	ands	r3, r2
 800126e:	0019      	movs	r1, r3
 8001270:	687b      	ldr	r3, [r7, #4]
 8001272:	691a      	ldr	r2, [r3, #16]
 8001274:	4b57      	ldr	r3, [pc, #348]	@ (80013d4 <HAL_RCC_OscConfig+0x32c>)
 8001276:	430a      	orrs	r2, r1
 8001278:	601a      	str	r2, [r3, #0]

        /* Enable the Internal High Speed oscillator (HSI16). */
        __HAL_RCC_HSI_ENABLE();
 800127a:	4b56      	ldr	r3, [pc, #344]	@ (80013d4 <HAL_RCC_OscConfig+0x32c>)
 800127c:	681a      	ldr	r2, [r3, #0]
 800127e:	4b55      	ldr	r3, [pc, #340]	@ (80013d4 <HAL_RCC_OscConfig+0x32c>)
 8001280:	2180      	movs	r1, #128	@ 0x80
 8001282:	0049      	lsls	r1, r1, #1
 8001284:	430a      	orrs	r2, r1
 8001286:	601a      	str	r2, [r3, #0]

        /* Get Start Tick*/
        tickstart = HAL_GetTick();
 8001288:	f7ff fc24 	bl	8000ad4 <HAL_GetTick>
 800128c:	0003      	movs	r3, r0
 800128e:	613b      	str	r3, [r7, #16]

        /* Wait till HSI is ready */
        while (READ_BIT(RCC->CR, RCC_CR_HSIRDY) == 0U)
 8001290:	e008      	b.n	80012a4 <HAL_RCC_OscConfig+0x1fc>
        {
          if ((HAL_GetTick() - tickstart) > HSI_TIMEOUT_VALUE)
 8001292:	f7ff fc1f 	bl	8000ad4 <HAL_GetTick>
 8001296:	0002      	movs	r2, r0
 8001298:	693b      	ldr	r3, [r7, #16]
 800129a:	1ad3      	subs	r3, r2, r3
 800129c:	2b02      	cmp	r3, #2
 800129e:	d901      	bls.n	80012a4 <HAL_RCC_OscConfig+0x1fc>
          {
            return HAL_TIMEOUT;
 80012a0:	2303      	movs	r3, #3
 80012a2:	e209      	b.n	80016b8 <HAL_RCC_OscConfig+0x610>
        while (READ_BIT(RCC->CR, RCC_CR_HSIRDY) == 0U)
 80012a4:	4b4b      	ldr	r3, [pc, #300]	@ (80013d4 <HAL_RCC_OscConfig+0x32c>)
 80012a6:	681a      	ldr	r2, [r3, #0]
 80012a8:	2380      	movs	r3, #128	@ 0x80
 80012aa:	00db      	lsls	r3, r3, #3
 80012ac:	4013      	ands	r3, r2
 80012ae:	d0f0      	beq.n	8001292 <HAL_RCC_OscConfig+0x1ea>
          }
        }

        /* Adjusts the Internal High Speed oscillator (HSI) calibration value.*/
        __HAL_RCC_HSI_CALIBRATIONVALUE_ADJUST(RCC_OscInitStruct->HSICalibrationValue);
 80012b0:	4b48      	ldr	r3, [pc, #288]	@ (80013d4 <HAL_RCC_OscConfig+0x32c>)
 80012b2:	685b      	ldr	r3, [r3, #4]
 80012b4:	4a4a      	ldr	r2, [pc, #296]	@ (80013e0 <HAL_RCC_OscConfig+0x338>)
 80012b6:	4013      	ands	r3, r2
 80012b8:	0019      	movs	r1, r3
 80012ba:	687b      	ldr	r3, [r7, #4]
 80012bc:	695b      	ldr	r3, [r3, #20]
 80012be:	021a      	lsls	r2, r3, #8
 80012c0:	4b44      	ldr	r3, [pc, #272]	@ (80013d4 <HAL_RCC_OscConfig+0x32c>)
 80012c2:	430a      	orrs	r2, r1
 80012c4:	605a      	str	r2, [r3, #4]
 80012c6:	e01b      	b.n	8001300 <HAL_RCC_OscConfig+0x258>
      }
      else
      {
        /* Disable the Internal High Speed oscillator (HSI16). */
        __HAL_RCC_HSI_DISABLE();
 80012c8:	4b42      	ldr	r3, [pc, #264]	@ (80013d4 <HAL_RCC_OscConfig+0x32c>)
 80012ca:	681a      	ldr	r2, [r3, #0]
 80012cc:	4b41      	ldr	r3, [pc, #260]	@ (80013d4 <HAL_RCC_OscConfig+0x32c>)
 80012ce:	4949      	ldr	r1, [pc, #292]	@ (80013f4 <HAL_RCC_OscConfig+0x34c>)
 80012d0:	400a      	ands	r2, r1
 80012d2:	601a      	str	r2, [r3, #0]

        /* Get Start Tick*/
        tickstart = HAL_GetTick();
 80012d4:	f7ff fbfe 	bl	8000ad4 <HAL_GetTick>
 80012d8:	0003      	movs	r3, r0
 80012da:	613b      	str	r3, [r7, #16]

        /* Wait till HSI is disabled */
        while (READ_BIT(RCC->CR, RCC_CR_HSIRDY) != 0U)
 80012dc:	e008      	b.n	80012f0 <HAL_RCC_OscConfig+0x248>
        {
          if ((HAL_GetTick() - tickstart) > HSI_TIMEOUT_VALUE)
 80012de:	f7ff fbf9 	bl	8000ad4 <HAL_GetTick>
 80012e2:	0002      	movs	r2, r0
 80012e4:	693b      	ldr	r3, [r7, #16]
 80012e6:	1ad3      	subs	r3, r2, r3
 80012e8:	2b02      	cmp	r3, #2
 80012ea:	d901      	bls.n	80012f0 <HAL_RCC_OscConfig+0x248>
          {
            return HAL_TIMEOUT;
 80012ec:	2303      	movs	r3, #3
 80012ee:	e1e3      	b.n	80016b8 <HAL_RCC_OscConfig+0x610>
        while (READ_BIT(RCC->CR, RCC_CR_HSIRDY) != 0U)
 80012f0:	4b38      	ldr	r3, [pc, #224]	@ (80013d4 <HAL_RCC_OscConfig+0x32c>)
 80012f2:	681a      	ldr	r2, [r3, #0]
 80012f4:	2380      	movs	r3, #128	@ 0x80
 80012f6:	00db      	lsls	r3, r3, #3
 80012f8:	4013      	ands	r3, r2
 80012fa:	d1f0      	bne.n	80012de <HAL_RCC_OscConfig+0x236>
 80012fc:	e000      	b.n	8001300 <HAL_RCC_OscConfig+0x258>
      if ((READ_BIT(RCC->CR, RCC_CR_HSIRDY) != 0U) && (RCC_OscInitStruct->HSIState == RCC_HSI_OFF))
 80012fe:	46c0      	nop			@ (mov r8, r8)
        }
      }
    }
  }
  /*------------------------------ LSI Configuration -------------------------*/
  if (((RCC_OscInitStruct->OscillatorType) & RCC_OSCILLATORTYPE_LSI) == RCC_OSCILLATORTYPE_LSI)
 8001300:	687b      	ldr	r3, [r7, #4]
 8001302:	681b      	ldr	r3, [r3, #0]
 8001304:	2208      	movs	r2, #8
 8001306:	4013      	ands	r3, r2
 8001308:	d047      	beq.n	800139a <HAL_RCC_OscConfig+0x2f2>
  {
    /* Check the parameters */
    assert_param(IS_RCC_LSI(RCC_OscInitStruct->LSIState));

    /* Check if LSI is used as system clock */
    if (__HAL_RCC_GET_SYSCLK_SOURCE() == RCC_SYSCLKSOURCE_STATUS_LSI)
 800130a:	4b32      	ldr	r3, [pc, #200]	@ (80013d4 <HAL_RCC_OscConfig+0x32c>)
 800130c:	689b      	ldr	r3, [r3, #8]
 800130e:	2238      	movs	r2, #56	@ 0x38
 8001310:	4013      	ands	r3, r2
 8001312:	2b18      	cmp	r3, #24
 8001314:	d10a      	bne.n	800132c <HAL_RCC_OscConfig+0x284>
    {
      /* When LSI is used as system clock it will not be disabled */
      if ((((RCC->CSR) & RCC_CSR_LSIRDY) != 0U) && (RCC_OscInitStruct->LSIState == RCC_LSI_OFF))
 8001316:	4b2f      	ldr	r3, [pc, #188]	@ (80013d4 <HAL_RCC_OscConfig+0x32c>)
 8001318:	6e1b      	ldr	r3, [r3, #96]	@ 0x60
 800131a:	2202      	movs	r2, #2
 800131c:	4013      	ands	r3, r2
 800131e:	d03c      	beq.n	800139a <HAL_RCC_OscConfig+0x2f2>
 8001320:	687b      	ldr	r3, [r7, #4]
 8001322:	699b      	ldr	r3, [r3, #24]
 8001324:	2b00      	cmp	r3, #0
 8001326:	d138      	bne.n	800139a <HAL_RCC_OscConfig+0x2f2>
      {
        return HAL_ERROR;
 8001328:	2301      	movs	r3, #1
 800132a:	e1c5      	b.n	80016b8 <HAL_RCC_OscConfig+0x610>
      }
    }
    else
    {
      /* Check the LSI State */
      if (RCC_OscInitStruct->LSIState != RCC_LSI_OFF)
 800132c:	687b      	ldr	r3, [r7, #4]
 800132e:	699b      	ldr	r3, [r3, #24]
 8001330:	2b00      	cmp	r3, #0
 8001332:	d019      	beq.n	8001368 <HAL_RCC_OscConfig+0x2c0>
      {
        /* Enable the Internal Low Speed oscillator (LSI). */
        __HAL_RCC_LSI_ENABLE();
 8001334:	4b27      	ldr	r3, [pc, #156]	@ (80013d4 <HAL_RCC_OscConfig+0x32c>)
 8001336:	6e1a      	ldr	r2, [r3, #96]	@ 0x60
 8001338:	4b26      	ldr	r3, [pc, #152]	@ (80013d4 <HAL_RCC_OscConfig+0x32c>)
 800133a:	2101      	movs	r1, #1
 800133c:	430a      	orrs	r2, r1
 800133e:	661a      	str	r2, [r3, #96]	@ 0x60

        /* Get Start Tick*/
        tickstart = HAL_GetTick();
 8001340:	f7ff fbc8 	bl	8000ad4 <HAL_GetTick>
 8001344:	0003      	movs	r3, r0
 8001346:	613b      	str	r3, [r7, #16]

        /* Wait till LSI is ready */
        while (READ_BIT(RCC->CSR, RCC_CSR_LSIRDY) == 0U)
 8001348:	e008      	b.n	800135c <HAL_RCC_OscConfig+0x2b4>
        {
          if ((HAL_GetTick() - tickstart) > LSI_TIMEOUT_VALUE)
 800134a:	f7ff fbc3 	bl	8000ad4 <HAL_GetTick>
 800134e:	0002      	movs	r2, r0
 8001350:	693b      	ldr	r3, [r7, #16]
 8001352:	1ad3      	subs	r3, r2, r3
 8001354:	2b02      	cmp	r3, #2
 8001356:	d901      	bls.n	800135c <HAL_RCC_OscConfig+0x2b4>
          {
            return HAL_TIMEOUT;
 8001358:	2303      	movs	r3, #3
 800135a:	e1ad      	b.n	80016b8 <HAL_RCC_OscConfig+0x610>
        while (READ_BIT(RCC->CSR, RCC_CSR_LSIRDY) == 0U)
 800135c:	4b1d      	ldr	r3, [pc, #116]	@ (80013d4 <HAL_RCC_OscConfig+0x32c>)
 800135e:	6e1b      	ldr	r3, [r3, #96]	@ 0x60
 8001360:	2202      	movs	r2, #2
 8001362:	4013      	ands	r3, r2
 8001364:	d0f1      	beq.n	800134a <HAL_RCC_OscConfig+0x2a2>
 8001366:	e018      	b.n	800139a <HAL_RCC_OscConfig+0x2f2>
        }
      }
      else
      {
        /* Disable the Internal Low Speed oscillator (LSI). */
        __HAL_RCC_LSI_DISABLE();
 8001368:	4b1a      	ldr	r3, [pc, #104]	@ (80013d4 <HAL_RCC_OscConfig+0x32c>)
 800136a:	6e1a      	ldr	r2, [r3, #96]	@ 0x60
 800136c:	4b19      	ldr	r3, [pc, #100]	@ (80013d4 <HAL_RCC_OscConfig+0x32c>)
 800136e:	2101      	movs	r1, #1
 8001370:	438a      	bics	r2, r1
 8001372:	661a      	str	r2, [r3, #96]	@ 0x60

        /* Get Start Tick*/
        tickstart = HAL_GetTick();
 8001374:	f7ff fbae 	bl	8000ad4 <HAL_GetTick>
 8001378:	0003      	movs	r3, r0
 800137a:	613b      	str	r3, [r7, #16]

        /* Wait till LSI is disabled */
        while (READ_BIT(RCC->CSR, RCC_CSR_LSIRDY) != 0U)
 800137c:	e008      	b.n	8001390 <HAL_RCC_OscConfig+0x2e8>
        {
          if ((HAL_GetTick() - tickstart) > LSI_TIMEOUT_VALUE)
 800137e:	f7ff fba9 	bl	8000ad4 <HAL_GetTick>
 8001382:	0002      	movs	r2, r0
 8001384:	693b      	ldr	r3, [r7, #16]
 8001386:	1ad3      	subs	r3, r2, r3
 8001388:	2b02      	cmp	r3, #2
 800138a:	d901      	bls.n	8001390 <HAL_RCC_OscConfig+0x2e8>
          {
            return HAL_TIMEOUT;
 800138c:	2303      	movs	r3, #3
 800138e:	e193      	b.n	80016b8 <HAL_RCC_OscConfig+0x610>
        while (READ_BIT(RCC->CSR, RCC_CSR_LSIRDY) != 0U)
 8001390:	4b10      	ldr	r3, [pc, #64]	@ (80013d4 <HAL_RCC_OscConfig+0x32c>)
 8001392:	6e1b      	ldr	r3, [r3, #96]	@ 0x60
 8001394:	2202      	movs	r2, #2
 8001396:	4013      	ands	r3, r2
 8001398:	d1f1      	bne.n	800137e <HAL_RCC_OscConfig+0x2d6>
        }
      }
    }
  }
  /*------------------------------ LSE Configuration -------------------------*/
  if (((RCC_OscInitStruct->OscillatorType) & RCC_OSCILLATORTYPE_LSE) == RCC_OSCILLATORTYPE_LSE)
 800139a:	687b      	ldr	r3, [r7, #4]
 800139c:	681b      	ldr	r3, [r3, #0]
 800139e:	2204      	movs	r2, #4
 80013a0:	4013      	ands	r3, r2
 80013a2:	d100      	bne.n	80013a6 <HAL_RCC_OscConfig+0x2fe>
 80013a4:	e0c6      	b.n	8001534 <HAL_RCC_OscConfig+0x48c>
  {
    FlagStatus       pwrclkchanged = RESET;
 80013a6:	231f      	movs	r3, #31
 80013a8:	18fb      	adds	r3, r7, r3
 80013aa:	2200      	movs	r2, #0
 80013ac:	701a      	strb	r2, [r3, #0]

    /* Check the parameters */
    assert_param(IS_RCC_LSE(RCC_OscInitStruct->LSEState));

    /* When the LSE is used as system clock, it is not allowed disable it */
    if (__HAL_RCC_GET_SYSCLK_SOURCE() == RCC_SYSCLKSOURCE_STATUS_LSE)
 80013ae:	4b09      	ldr	r3, [pc, #36]	@ (80013d4 <HAL_RCC_OscConfig+0x32c>)
 80013b0:	689b      	ldr	r3, [r3, #8]
 80013b2:	2238      	movs	r2, #56	@ 0x38
 80013b4:	4013      	ands	r3, r2
 80013b6:	2b20      	cmp	r3, #32
 80013b8:	d11e      	bne.n	80013f8 <HAL_RCC_OscConfig+0x350>
    {
      if ((((RCC->BDCR) & RCC_BDCR_LSERDY) != 0U) && (RCC_OscInitStruct->LSEState == RCC_LSE_OFF))
 80013ba:	4b06      	ldr	r3, [pc, #24]	@ (80013d4 <HAL_RCC_OscConfig+0x32c>)
 80013bc:	6ddb      	ldr	r3, [r3, #92]	@ 0x5c
 80013be:	2202      	movs	r2, #2
 80013c0:	4013      	ands	r3, r2
 80013c2:	d100      	bne.n	80013c6 <HAL_RCC_OscConfig+0x31e>
 80013c4:	e0b6      	b.n	8001534 <HAL_RCC_OscConfig+0x48c>
 80013c6:	687b      	ldr	r3, [r7, #4]
 80013c8:	689b      	ldr	r3, [r3, #8]
 80013ca:	2b00      	cmp	r3, #0
 80013cc:	d000      	beq.n	80013d0 <HAL_RCC_OscConfig+0x328>
 80013ce:	e0b1      	b.n	8001534 <HAL_RCC_OscConfig+0x48c>
      {
        return HAL_ERROR;
 80013d0:	2301      	movs	r3, #1
 80013d2:	e171      	b.n	80016b8 <HAL_RCC_OscConfig+0x610>
 80013d4:	40021000 	.word	0x40021000
 80013d8:	fffeffff 	.word	0xfffeffff
 80013dc:	fffbffff 	.word	0xfffbffff
 80013e0:	ffff80ff 	.word	0xffff80ff
 80013e4:	ffffc7ff 	.word	0xffffc7ff
 80013e8:	00f42400 	.word	0x00f42400
 80013ec:	20000000 	.word	0x20000000
 80013f0:	20000004 	.word	0x20000004
 80013f4:	fffffeff 	.word	0xfffffeff
    }
    else
    {
      /* Update LSE configuration in Backup Domain control register    */
      /* Requires to enable write access to Backup Domain of necessary */
      if (__HAL_RCC_PWR_IS_CLK_DISABLED() != 0U)
 80013f8:	4bb1      	ldr	r3, [pc, #708]	@ (80016c0 <HAL_RCC_OscConfig+0x618>)
 80013fa:	6bda      	ldr	r2, [r3, #60]	@ 0x3c
 80013fc:	2380      	movs	r3, #128	@ 0x80
 80013fe:	055b      	lsls	r3, r3, #21
 8001400:	4013      	ands	r3, r2
 8001402:	d101      	bne.n	8001408 <HAL_RCC_OscConfig+0x360>
 8001404:	2301      	movs	r3, #1
 8001406:	e000      	b.n	800140a <HAL_RCC_OscConfig+0x362>
 8001408:	2300      	movs	r3, #0
 800140a:	2b00      	cmp	r3, #0
 800140c:	d011      	beq.n	8001432 <HAL_RCC_OscConfig+0x38a>
      {
        __HAL_RCC_PWR_CLK_ENABLE();
 800140e:	4bac      	ldr	r3, [pc, #688]	@ (80016c0 <HAL_RCC_OscConfig+0x618>)
 8001410:	6bda      	ldr	r2, [r3, #60]	@ 0x3c
 8001412:	4bab      	ldr	r3, [pc, #684]	@ (80016c0 <HAL_RCC_OscConfig+0x618>)
 8001414:	2180      	movs	r1, #128	@ 0x80
 8001416:	0549      	lsls	r1, r1, #21
 8001418:	430a      	orrs	r2, r1
 800141a:	63da      	str	r2, [r3, #60]	@ 0x3c
 800141c:	4ba8      	ldr	r3, [pc, #672]	@ (80016c0 <HAL_RCC_OscConfig+0x618>)
 800141e:	6bda      	ldr	r2, [r3, #60]	@ 0x3c
 8001420:	2380      	movs	r3, #128	@ 0x80
 8001422:	055b      	lsls	r3, r3, #21
 8001424:	4013      	ands	r3, r2
 8001426:	60fb      	str	r3, [r7, #12]
 8001428:	68fb      	ldr	r3, [r7, #12]
        pwrclkchanged = SET;
 800142a:	231f      	movs	r3, #31
 800142c:	18fb      	adds	r3, r7, r3
 800142e:	2201      	movs	r2, #1
 8001430:	701a      	strb	r2, [r3, #0]
      }

      if (HAL_IS_BIT_CLR(PWR->CR1, PWR_CR1_DBP))
 8001432:	4ba4      	ldr	r3, [pc, #656]	@ (80016c4 <HAL_RCC_OscConfig+0x61c>)
 8001434:	681a      	ldr	r2, [r3, #0]
 8001436:	2380      	movs	r3, #128	@ 0x80
 8001438:	005b      	lsls	r3, r3, #1
 800143a:	4013      	ands	r3, r2
 800143c:	d11a      	bne.n	8001474 <HAL_RCC_OscConfig+0x3cc>
      {
        /* Enable write access to Backup domain */
        SET_BIT(PWR->CR1, PWR_CR1_DBP);
 800143e:	4ba1      	ldr	r3, [pc, #644]	@ (80016c4 <HAL_RCC_OscConfig+0x61c>)
 8001440:	681a      	ldr	r2, [r3, #0]
 8001442:	4ba0      	ldr	r3, [pc, #640]	@ (80016c4 <HAL_RCC_OscConfig+0x61c>)
 8001444:	2180      	movs	r1, #128	@ 0x80
 8001446:	0049      	lsls	r1, r1, #1
 8001448:	430a      	orrs	r2, r1
 800144a:	601a      	str	r2, [r3, #0]

        /* Wait for Backup domain Write protection disable */
        tickstart = HAL_GetTick();
 800144c:	f7ff fb42 	bl	8000ad4 <HAL_GetTick>
 8001450:	0003      	movs	r3, r0
 8001452:	613b      	str	r3, [r7, #16]

        while (HAL_IS_BIT_CLR(PWR->CR1, PWR_CR1_DBP))
 8001454:	e008      	b.n	8001468 <HAL_RCC_OscConfig+0x3c0>
        {
          if ((HAL_GetTick() - tickstart) > RCC_DBP_TIMEOUT_VALUE)
 8001456:	f7ff fb3d 	bl	8000ad4 <HAL_GetTick>
 800145a:	0002      	movs	r2, r0
 800145c:	693b      	ldr	r3, [r7, #16]
 800145e:	1ad3      	subs	r3, r2, r3
 8001460:	2b02      	cmp	r3, #2
 8001462:	d901      	bls.n	8001468 <HAL_RCC_OscConfig+0x3c0>
          {
            return HAL_TIMEOUT;
 8001464:	2303      	movs	r3, #3
 8001466:	e127      	b.n	80016b8 <HAL_RCC_OscConfig+0x610>
        while (HAL_IS_BIT_CLR(PWR->CR1, PWR_CR1_DBP))
 8001468:	4b96      	ldr	r3, [pc, #600]	@ (80016c4 <HAL_RCC_OscConfig+0x61c>)
 800146a:	681a      	ldr	r2, [r3, #0]
 800146c:	2380      	movs	r3, #128	@ 0x80
 800146e:	005b      	lsls	r3, r3, #1
 8001470:	4013      	ands	r3, r2
 8001472:	d0f0      	beq.n	8001456 <HAL_RCC_OscConfig+0x3ae>
          }
        }
      }

      /* Set the new LSE configuration -----------------------------------------*/
      __HAL_RCC_LSE_CONFIG(RCC_OscInitStruct->LSEState);
 8001474:	687b      	ldr	r3, [r7, #4]
 8001476:	689b      	ldr	r3, [r3, #8]
 8001478:	2b01      	cmp	r3, #1
 800147a:	d106      	bne.n	800148a <HAL_RCC_OscConfig+0x3e2>
 800147c:	4b90      	ldr	r3, [pc, #576]	@ (80016c0 <HAL_RCC_OscConfig+0x618>)
 800147e:	6dda      	ldr	r2, [r3, #92]	@ 0x5c
 8001480:	4b8f      	ldr	r3, [pc, #572]	@ (80016c0 <HAL_RCC_OscConfig+0x618>)
 8001482:	2101      	movs	r1, #1
 8001484:	430a      	orrs	r2, r1
 8001486:	65da      	str	r2, [r3, #92]	@ 0x5c
 8001488:	e01c      	b.n	80014c4 <HAL_RCC_OscConfig+0x41c>
 800148a:	687b      	ldr	r3, [r7, #4]
 800148c:	689b      	ldr	r3, [r3, #8]
 800148e:	2b05      	cmp	r3, #5
 8001490:	d10c      	bne.n	80014ac <HAL_RCC_OscConfig+0x404>
 8001492:	4b8b      	ldr	r3, [pc, #556]	@ (80016c0 <HAL_RCC_OscConfig+0x618>)
 8001494:	6dda      	ldr	r2, [r3, #92]	@ 0x5c
 8001496:	4b8a      	ldr	r3, [pc, #552]	@ (80016c0 <HAL_RCC_OscConfig+0x618>)
 8001498:	2104      	movs	r1, #4
 800149a:	430a      	orrs	r2, r1
 800149c:	65da      	str	r2, [r3, #92]	@ 0x5c
 800149e:	4b88      	ldr	r3, [pc, #544]	@ (80016c0 <HAL_RCC_OscConfig+0x618>)
 80014a0:	6dda      	ldr	r2, [r3, #92]	@ 0x5c
 80014a2:	4b87      	ldr	r3, [pc, #540]	@ (80016c0 <HAL_RCC_OscConfig+0x618>)
 80014a4:	2101      	movs	r1, #1
 80014a6:	430a      	orrs	r2, r1
 80014a8:	65da      	str	r2, [r3, #92]	@ 0x5c
 80014aa:	e00b      	b.n	80014c4 <HAL_RCC_OscConfig+0x41c>
 80014ac:	4b84      	ldr	r3, [pc, #528]	@ (80016c0 <HAL_RCC_OscConfig+0x618>)
 80014ae:	6dda      	ldr	r2, [r3, #92]	@ 0x5c
 80014b0:	4b83      	ldr	r3, [pc, #524]	@ (80016c0 <HAL_RCC_OscConfig+0x618>)
 80014b2:	2101      	movs	r1, #1
 80014b4:	438a      	bics	r2, r1
 80014b6:	65da      	str	r2, [r3, #92]	@ 0x5c
 80014b8:	4b81      	ldr	r3, [pc, #516]	@ (80016c0 <HAL_RCC_OscConfig+0x618>)
 80014ba:	6dda      	ldr	r2, [r3, #92]	@ 0x5c
 80014bc:	4b80      	ldr	r3, [pc, #512]	@ (80016c0 <HAL_RCC_OscConfig+0x618>)
 80014be:	2104      	movs	r1, #4
 80014c0:	438a      	bics	r2, r1
 80014c2:	65da      	str	r2, [r3, #92]	@ 0x5c

      /* Check the LSE State */
      if (RCC_OscInitStruct->LSEState != RCC_LSE_OFF)
 80014c4:	687b      	ldr	r3, [r7, #4]
 80014c6:	689b      	ldr	r3, [r3, #8]
 80014c8:	2b00      	cmp	r3, #0
 80014ca:	d014      	beq.n	80014f6 <HAL_RCC_OscConfig+0x44e>
      {
        /* Get Start Tick*/
        tickstart = HAL_GetTick();
 80014cc:	f7ff fb02 	bl	8000ad4 <HAL_GetTick>
 80014d0:	0003      	movs	r3, r0
 80014d2:	613b      	str	r3, [r7, #16]

        /* Wait till LSE is ready */
        while (READ_BIT(RCC->BDCR, RCC_BDCR_LSERDY) == 0U)
 80014d4:	e009      	b.n	80014ea <HAL_RCC_OscConfig+0x442>
        {
          if ((HAL_GetTick() - tickstart) > RCC_LSE_TIMEOUT_VALUE)
 80014d6:	f7ff fafd 	bl	8000ad4 <HAL_GetTick>
 80014da:	0002      	movs	r2, r0
 80014dc:	693b      	ldr	r3, [r7, #16]
 80014de:	1ad3      	subs	r3, r2, r3
 80014e0:	4a79      	ldr	r2, [pc, #484]	@ (80016c8 <HAL_RCC_OscConfig+0x620>)
 80014e2:	4293      	cmp	r3, r2
 80014e4:	d901      	bls.n	80014ea <HAL_RCC_OscConfig+0x442>
          {
            return HAL_TIMEOUT;
 80014e6:	2303      	movs	r3, #3
 80014e8:	e0e6      	b.n	80016b8 <HAL_RCC_OscConfig+0x610>
        while (READ_BIT(RCC->BDCR, RCC_BDCR_LSERDY) == 0U)
 80014ea:	4b75      	ldr	r3, [pc, #468]	@ (80016c0 <HAL_RCC_OscConfig+0x618>)
 80014ec:	6ddb      	ldr	r3, [r3, #92]	@ 0x5c
 80014ee:	2202      	movs	r2, #2
 80014f0:	4013      	ands	r3, r2
 80014f2:	d0f0      	beq.n	80014d6 <HAL_RCC_OscConfig+0x42e>
 80014f4:	e013      	b.n	800151e <HAL_RCC_OscConfig+0x476>
        }
      }
      else
      {
        /* Get Start Tick*/
        tickstart = HAL_GetTick();
 80014f6:	f7ff faed 	bl	8000ad4 <HAL_GetTick>
 80014fa:	0003      	movs	r3, r0
 80014fc:	613b      	str	r3, [r7, #16]

        /* Wait till LSE is disabled */
        while (READ_BIT(RCC->BDCR, RCC_BDCR_LSERDY) != 0U)
 80014fe:	e009      	b.n	8001514 <HAL_RCC_OscConfig+0x46c>
        {
          if ((HAL_GetTick() - tickstart) > RCC_LSE_TIMEOUT_VALUE)
 8001500:	f7ff fae8 	bl	8000ad4 <HAL_GetTick>
 8001504:	0002      	movs	r2, r0
 8001506:	693b      	ldr	r3, [r7, #16]
 8001508:	1ad3      	subs	r3, r2, r3
 800150a:	4a6f      	ldr	r2, [pc, #444]	@ (80016c8 <HAL_RCC_OscConfig+0x620>)
 800150c:	4293      	cmp	r3, r2
 800150e:	d901      	bls.n	8001514 <HAL_RCC_OscConfig+0x46c>
          {
            return HAL_TIMEOUT;
 8001510:	2303      	movs	r3, #3
 8001512:	e0d1      	b.n	80016b8 <HAL_RCC_OscConfig+0x610>
        while (READ_BIT(RCC->BDCR, RCC_BDCR_LSERDY) != 0U)
 8001514:	4b6a      	ldr	r3, [pc, #424]	@ (80016c0 <HAL_RCC_OscConfig+0x618>)
 8001516:	6ddb      	ldr	r3, [r3, #92]	@ 0x5c
 8001518:	2202      	movs	r2, #2
 800151a:	4013      	ands	r3, r2
 800151c:	d1f0      	bne.n	8001500 <HAL_RCC_OscConfig+0x458>
          }
        }
      }

      /* Restore clock configuration if changed */
      if (pwrclkchanged == SET)
 800151e:	231f      	movs	r3, #31
 8001520:	18fb      	adds	r3, r7, r3
 8001522:	781b      	ldrb	r3, [r3, #0]
 8001524:	2b01      	cmp	r3, #1
 8001526:	d105      	bne.n	8001534 <HAL_RCC_OscConfig+0x48c>
      {
        __HAL_RCC_PWR_CLK_DISABLE();
 8001528:	4b65      	ldr	r3, [pc, #404]	@ (80016c0 <HAL_RCC_OscConfig+0x618>)
 800152a:	6bda      	ldr	r2, [r3, #60]	@ 0x3c
 800152c:	4b64      	ldr	r3, [pc, #400]	@ (80016c0 <HAL_RCC_OscConfig+0x618>)
 800152e:	4967      	ldr	r1, [pc, #412]	@ (80016cc <HAL_RCC_OscConfig+0x624>)
 8001530:	400a      	ands	r2, r1
 8001532:	63da      	str	r2, [r3, #60]	@ 0x3c
#endif /* RCC_HSI48_SUPPORT */
  /*-------------------------------- PLL Configuration -----------------------*/
  /* Check the parameters */
  assert_param(IS_RCC_PLL(RCC_OscInitStruct->PLL.PLLState));

  if (RCC_OscInitStruct->PLL.PLLState != RCC_PLL_NONE)
 8001534:	687b      	ldr	r3, [r7, #4]
 8001536:	69db      	ldr	r3, [r3, #28]
 8001538:	2b00      	cmp	r3, #0
 800153a:	d100      	bne.n	800153e <HAL_RCC_OscConfig+0x496>
 800153c:	e0bb      	b.n	80016b6 <HAL_RCC_OscConfig+0x60e>
  {
    /* Check if the PLL is used as system clock or not */
    if (__HAL_RCC_GET_SYSCLK_SOURCE() != RCC_SYSCLKSOURCE_STATUS_PLLCLK)
 800153e:	4b60      	ldr	r3, [pc, #384]	@ (80016c0 <HAL_RCC_OscConfig+0x618>)
 8001540:	689b      	ldr	r3, [r3, #8]
 8001542:	2238      	movs	r2, #56	@ 0x38
 8001544:	4013      	ands	r3, r2
 8001546:	2b10      	cmp	r3, #16
 8001548:	d100      	bne.n	800154c <HAL_RCC_OscConfig+0x4a4>
 800154a:	e07b      	b.n	8001644 <HAL_RCC_OscConfig+0x59c>
    {
      if (RCC_OscInitStruct->PLL.PLLState == RCC_PLL_ON)
 800154c:	687b      	ldr	r3, [r7, #4]
 800154e:	69db      	ldr	r3, [r3, #28]
 8001550:	2b02      	cmp	r3, #2
 8001552:	d156      	bne.n	8001602 <HAL_RCC_OscConfig+0x55a>
        assert_param(IS_RCC_PLLQ_VALUE(RCC_OscInitStruct->PLL.PLLQ));
#endif /* RCC_PLLQ_SUPPORT */
        assert_param(IS_RCC_PLLR_VALUE(RCC_OscInitStruct->PLL.PLLR));

        /* Disable the main PLL. */
        __HAL_RCC_PLL_DISABLE();
 8001554:	4b5a      	ldr	r3, [pc, #360]	@ (80016c0 <HAL_RCC_OscConfig+0x618>)
 8001556:	681a      	ldr	r2, [r3, #0]
 8001558:	4b59      	ldr	r3, [pc, #356]	@ (80016c0 <HAL_RCC_OscConfig+0x618>)
 800155a:	495d      	ldr	r1, [pc, #372]	@ (80016d0 <HAL_RCC_OscConfig+0x628>)
 800155c:	400a      	ands	r2, r1
 800155e:	601a      	str	r2, [r3, #0]

        /* Get Start Tick*/
        tickstart = HAL_GetTick();
 8001560:	f7ff fab8 	bl	8000ad4 <HAL_GetTick>
 8001564:	0003      	movs	r3, r0
 8001566:	613b      	str	r3, [r7, #16]

        /* Wait till PLL is ready */
        while (READ_BIT(RCC->CR, RCC_CR_PLLRDY) != 0U)
 8001568:	e008      	b.n	800157c <HAL_RCC_OscConfig+0x4d4>
        {
          if ((HAL_GetTick() - tickstart) > PLL_TIMEOUT_VALUE)
 800156a:	f7ff fab3 	bl	8000ad4 <HAL_GetTick>
 800156e:	0002      	movs	r2, r0
 8001570:	693b      	ldr	r3, [r7, #16]
 8001572:	1ad3      	subs	r3, r2, r3
 8001574:	2b02      	cmp	r3, #2
 8001576:	d901      	bls.n	800157c <HAL_RCC_OscConfig+0x4d4>
          {
            return HAL_TIMEOUT;
 8001578:	2303      	movs	r3, #3
 800157a:	e09d      	b.n	80016b8 <HAL_RCC_OscConfig+0x610>
        while (READ_BIT(RCC->CR, RCC_CR_PLLRDY) != 0U)
 800157c:	4b50      	ldr	r3, [pc, #320]	@ (80016c0 <HAL_RCC_OscConfig+0x618>)
 800157e:	681a      	ldr	r2, [r3, #0]
 8001580:	2380      	movs	r3, #128	@ 0x80
 8001582:	049b      	lsls	r3, r3, #18
 8001584:	4013      	ands	r3, r2
 8001586:	d1f0      	bne.n	800156a <HAL_RCC_OscConfig+0x4c2>
          }
        }

        /* Configure the main PLL clock source, multiplication and division factors. */
#if defined(RCC_PLLQ_SUPPORT)
        __HAL_RCC_PLL_CONFIG(RCC_OscInitStruct->PLL.PLLSource,
 8001588:	4b4d      	ldr	r3, [pc, #308]	@ (80016c0 <HAL_RCC_OscConfig+0x618>)
 800158a:	68db      	ldr	r3, [r3, #12]
 800158c:	4a51      	ldr	r2, [pc, #324]	@ (80016d4 <HAL_RCC_OscConfig+0x62c>)
 800158e:	4013      	ands	r3, r2
 8001590:	0019      	movs	r1, r3
 8001592:	687b      	ldr	r3, [r7, #4]
 8001594:	6a1a      	ldr	r2, [r3, #32]
 8001596:	687b      	ldr	r3, [r7, #4]
 8001598:	6a5b      	ldr	r3, [r3, #36]	@ 0x24
 800159a:	431a      	orrs	r2, r3
 800159c:	687b      	ldr	r3, [r7, #4]
 800159e:	6a9b      	ldr	r3, [r3, #40]	@ 0x28
 80015a0:	021b      	lsls	r3, r3, #8
 80015a2:	431a      	orrs	r2, r3
 80015a4:	687b      	ldr	r3, [r7, #4]
 80015a6:	6adb      	ldr	r3, [r3, #44]	@ 0x2c
 80015a8:	431a      	orrs	r2, r3
 80015aa:	687b      	ldr	r3, [r7, #4]
 80015ac:	6b1b      	ldr	r3, [r3, #48]	@ 0x30
 80015ae:	431a      	orrs	r2, r3
 80015b0:	687b      	ldr	r3, [r7, #4]
 80015b2:	6b5b      	ldr	r3, [r3, #52]	@ 0x34
 80015b4:	431a      	orrs	r2, r3
 80015b6:	4b42      	ldr	r3, [pc, #264]	@ (80016c0 <HAL_RCC_OscConfig+0x618>)
 80015b8:	430a      	orrs	r2, r1
 80015ba:	60da      	str	r2, [r3, #12]
                             RCC_OscInitStruct->PLL.PLLP,
                             RCC_OscInitStruct->PLL.PLLR);
#endif /* RCC_PLLQ_SUPPORT */

        /* Enable the main PLL. */
        __HAL_RCC_PLL_ENABLE();
 80015bc:	4b40      	ldr	r3, [pc, #256]	@ (80016c0 <HAL_RCC_OscConfig+0x618>)
 80015be:	681a      	ldr	r2, [r3, #0]
 80015c0:	4b3f      	ldr	r3, [pc, #252]	@ (80016c0 <HAL_RCC_OscConfig+0x618>)
 80015c2:	2180      	movs	r1, #128	@ 0x80
 80015c4:	0449      	lsls	r1, r1, #17
 80015c6:	430a      	orrs	r2, r1
 80015c8:	601a      	str	r2, [r3, #0]

        /* Enable PLLR Clock output. */
        __HAL_RCC_PLLCLKOUT_ENABLE(RCC_PLLRCLK);
 80015ca:	4b3d      	ldr	r3, [pc, #244]	@ (80016c0 <HAL_RCC_OscConfig+0x618>)
 80015cc:	68da      	ldr	r2, [r3, #12]
 80015ce:	4b3c      	ldr	r3, [pc, #240]	@ (80016c0 <HAL_RCC_OscConfig+0x618>)
 80015d0:	2180      	movs	r1, #128	@ 0x80
 80015d2:	0549      	lsls	r1, r1, #21
 80015d4:	430a      	orrs	r2, r1
 80015d6:	60da      	str	r2, [r3, #12]

        /* Get Start Tick*/
        tickstart = HAL_GetTick();
 80015d8:	f7ff fa7c 	bl	8000ad4 <HAL_GetTick>
 80015dc:	0003      	movs	r3, r0
 80015de:	613b      	str	r3, [r7, #16]

        /* Wait till PLL is ready */
        while (READ_BIT(RCC->CR, RCC_CR_PLLRDY) == 0U)
 80015e0:	e008      	b.n	80015f4 <HAL_RCC_OscConfig+0x54c>
        {
          if ((HAL_GetTick() - tickstart) > PLL_TIMEOUT_VALUE)
 80015e2:	f7ff fa77 	bl	8000ad4 <HAL_GetTick>
 80015e6:	0002      	movs	r2, r0
 80015e8:	693b      	ldr	r3, [r7, #16]
 80015ea:	1ad3      	subs	r3, r2, r3
 80015ec:	2b02      	cmp	r3, #2
 80015ee:	d901      	bls.n	80015f4 <HAL_RCC_OscConfig+0x54c>
          {
            return HAL_TIMEOUT;
 80015f0:	2303      	movs	r3, #3
 80015f2:	e061      	b.n	80016b8 <HAL_RCC_OscConfig+0x610>
        while (READ_BIT(RCC->CR, RCC_CR_PLLRDY) == 0U)
 80015f4:	4b32      	ldr	r3, [pc, #200]	@ (80016c0 <HAL_RCC_OscConfig+0x618>)
 80015f6:	681a      	ldr	r2, [r3, #0]
 80015f8:	2380      	movs	r3, #128	@ 0x80
 80015fa:	049b      	lsls	r3, r3, #18
 80015fc:	4013      	ands	r3, r2
 80015fe:	d0f0      	beq.n	80015e2 <HAL_RCC_OscConfig+0x53a>
 8001600:	e059      	b.n	80016b6 <HAL_RCC_OscConfig+0x60e>
        }
      }
      else
      {
        /* Disable the main PLL. */
        __HAL_RCC_PLL_DISABLE();
 8001602:	4b2f      	ldr	r3, [pc, #188]	@ (80016c0 <HAL_RCC_OscConfig+0x618>)
 8001604:	681a      	ldr	r2, [r3, #0]
 8001606:	4b2e      	ldr	r3, [pc, #184]	@ (80016c0 <HAL_RCC_OscConfig+0x618>)
 8001608:	4931      	ldr	r1, [pc, #196]	@ (80016d0 <HAL_RCC_OscConfig+0x628>)
 800160a:	400a      	ands	r2, r1
 800160c:	601a      	str	r2, [r3, #0]

        /* Get Start Tick*/
        tickstart = HAL_GetTick();
 800160e:	f7ff fa61 	bl	8000ad4 <HAL_GetTick>
 8001612:	0003      	movs	r3, r0
 8001614:	613b      	str	r3, [r7, #16]

        /* Wait till PLL is disabled */
        while (READ_BIT(RCC->CR, RCC_CR_PLLRDY) != 0U)
 8001616:	e008      	b.n	800162a <HAL_RCC_OscConfig+0x582>
        {
          if ((HAL_GetTick() - tickstart) > PLL_TIMEOUT_VALUE)
 8001618:	f7ff fa5c 	bl	8000ad4 <HAL_GetTick>
 800161c:	0002      	movs	r2, r0
 800161e:	693b      	ldr	r3, [r7, #16]
 8001620:	1ad3      	subs	r3, r2, r3
 8001622:	2b02      	cmp	r3, #2
 8001624:	d901      	bls.n	800162a <HAL_RCC_OscConfig+0x582>
          {
            return HAL_TIMEOUT;
 8001626:	2303      	movs	r3, #3
 8001628:	e046      	b.n	80016b8 <HAL_RCC_OscConfig+0x610>
        while (READ_BIT(RCC->CR, RCC_CR_PLLRDY) != 0U)
 800162a:	4b25      	ldr	r3, [pc, #148]	@ (80016c0 <HAL_RCC_OscConfig+0x618>)
 800162c:	681a      	ldr	r2, [r3, #0]
 800162e:	2380      	movs	r3, #128	@ 0x80
 8001630:	049b      	lsls	r3, r3, #18
 8001632:	4013      	ands	r3, r2
 8001634:	d1f0      	bne.n	8001618 <HAL_RCC_OscConfig+0x570>
          }
        }
        /* Unselect main PLL clock source and disable main PLL outputs to save power */
#if defined(RCC_PLLQ_SUPPORT)
        RCC->PLLCFGR &= ~(RCC_PLLCFGR_PLLSRC | RCC_PLLCFGR_PLLPEN | RCC_PLLCFGR_PLLQEN | RCC_PLLCFGR_PLLREN);
 8001636:	4b22      	ldr	r3, [pc, #136]	@ (80016c0 <HAL_RCC_OscConfig+0x618>)
 8001638:	68da      	ldr	r2, [r3, #12]
 800163a:	4b21      	ldr	r3, [pc, #132]	@ (80016c0 <HAL_RCC_OscConfig+0x618>)
 800163c:	4926      	ldr	r1, [pc, #152]	@ (80016d8 <HAL_RCC_OscConfig+0x630>)
 800163e:	400a      	ands	r2, r1
 8001640:	60da      	str	r2, [r3, #12]
 8001642:	e038      	b.n	80016b6 <HAL_RCC_OscConfig+0x60e>
      }
    }
    else
    {
      /* Check if there is a request to disable the PLL used as System clock source */
      if ((RCC_OscInitStruct->PLL.PLLState) == RCC_PLL_OFF)
 8001644:	687b      	ldr	r3, [r7, #4]
 8001646:	69db      	ldr	r3, [r3, #28]
 8001648:	2b01      	cmp	r3, #1
 800164a:	d101      	bne.n	8001650 <HAL_RCC_OscConfig+0x5a8>
      {
        return HAL_ERROR;
 800164c:	2301      	movs	r3, #1
 800164e:	e033      	b.n	80016b8 <HAL_RCC_OscConfig+0x610>
      }
      else
      {
        /* Do not return HAL_ERROR if request repeats the current configuration */
        temp_pllckcfg = RCC->PLLCFGR;
 8001650:	4b1b      	ldr	r3, [pc, #108]	@ (80016c0 <HAL_RCC_OscConfig+0x618>)
 8001652:	68db      	ldr	r3, [r3, #12]
 8001654:	617b      	str	r3, [r7, #20]
        if ((READ_BIT(temp_pllckcfg, RCC_PLLCFGR_PLLSRC) != RCC_OscInitStruct->PLL.PLLSource) ||
 8001656:	697b      	ldr	r3, [r7, #20]
 8001658:	2203      	movs	r2, #3
 800165a:	401a      	ands	r2, r3
 800165c:	687b      	ldr	r3, [r7, #4]
 800165e:	6a1b      	ldr	r3, [r3, #32]
 8001660:	429a      	cmp	r2, r3
 8001662:	d126      	bne.n	80016b2 <HAL_RCC_OscConfig+0x60a>
            (READ_BIT(temp_pllckcfg, RCC_PLLCFGR_PLLM) != RCC_OscInitStruct->PLL.PLLM) ||
 8001664:	697b      	ldr	r3, [r7, #20]
 8001666:	2270      	movs	r2, #112	@ 0x70
 8001668:	401a      	ands	r2, r3
 800166a:	687b      	ldr	r3, [r7, #4]
 800166c:	6a5b      	ldr	r3, [r3, #36]	@ 0x24
        if ((READ_BIT(temp_pllckcfg, RCC_PLLCFGR_PLLSRC) != RCC_OscInitStruct->PLL.PLLSource) ||
 800166e:	429a      	cmp	r2, r3
 8001670:	d11f      	bne.n	80016b2 <HAL_RCC_OscConfig+0x60a>
            (READ_BIT(temp_pllckcfg, RCC_PLLCFGR_PLLN) != (RCC_OscInitStruct->PLL.PLLN << RCC_PLLCFGR_PLLN_Pos)) ||
 8001672:	697a      	ldr	r2, [r7, #20]
 8001674:	23fe      	movs	r3, #254	@ 0xfe
 8001676:	01db      	lsls	r3, r3, #7
 8001678:	401a      	ands	r2, r3
 800167a:	687b      	ldr	r3, [r7, #4]
 800167c:	6a9b      	ldr	r3, [r3, #40]	@ 0x28
 800167e:	021b      	lsls	r3, r3, #8
            (READ_BIT(temp_pllckcfg, RCC_PLLCFGR_PLLM) != RCC_OscInitStruct->PLL.PLLM) ||
 8001680:	429a      	cmp	r2, r3
 8001682:	d116      	bne.n	80016b2 <HAL_RCC_OscConfig+0x60a>
            (READ_BIT(temp_pllckcfg, RCC_PLLCFGR_PLLP) != RCC_OscInitStruct->PLL.PLLP) ||
 8001684:	697a      	ldr	r2, [r7, #20]
 8001686:	23f8      	movs	r3, #248	@ 0xf8
 8001688:	039b      	lsls	r3, r3, #14
 800168a:	401a      	ands	r2, r3
 800168c:	687b      	ldr	r3, [r7, #4]
 800168e:	6adb      	ldr	r3, [r3, #44]	@ 0x2c
            (READ_BIT(temp_pllckcfg, RCC_PLLCFGR_PLLN) != (RCC_OscInitStruct->PLL.PLLN << RCC_PLLCFGR_PLLN_Pos)) ||
 8001690:	429a      	cmp	r2, r3
 8001692:	d10e      	bne.n	80016b2 <HAL_RCC_OscConfig+0x60a>
#if defined (RCC_PLLQ_SUPPORT)
            (READ_BIT(temp_pllckcfg, RCC_PLLCFGR_PLLQ) != RCC_OscInitStruct->PLL.PLLQ) ||
 8001694:	697a      	ldr	r2, [r7, #20]
 8001696:	23e0      	movs	r3, #224	@ 0xe0
 8001698:	051b      	lsls	r3, r3, #20
 800169a:	401a      	ands	r2, r3
 800169c:	687b      	ldr	r3, [r7, #4]
 800169e:	6b1b      	ldr	r3, [r3, #48]	@ 0x30
            (READ_BIT(temp_pllckcfg, RCC_PLLCFGR_PLLP) != RCC_OscInitStruct->PLL.PLLP) ||
 80016a0:	429a      	cmp	r2, r3
 80016a2:	d106      	bne.n	80016b2 <HAL_RCC_OscConfig+0x60a>
#endif /* RCC_PLLQ_SUPPORT */
            (READ_BIT(temp_pllckcfg, RCC_PLLCFGR_PLLR) != RCC_OscInitStruct->PLL.PLLR))
 80016a4:	697b      	ldr	r3, [r7, #20]
 80016a6:	0f5b      	lsrs	r3, r3, #29
 80016a8:	075a      	lsls	r2, r3, #29
 80016aa:	687b      	ldr	r3, [r7, #4]
 80016ac:	6b5b      	ldr	r3, [r3, #52]	@ 0x34
            (READ_BIT(temp_pllckcfg, RCC_PLLCFGR_PLLQ) != RCC_OscInitStruct->PLL.PLLQ) ||
 80016ae:	429a      	cmp	r2, r3
 80016b0:	d001      	beq.n	80016b6 <HAL_RCC_OscConfig+0x60e>
        {
          return HAL_ERROR;
 80016b2:	2301      	movs	r3, #1
 80016b4:	e000      	b.n	80016b8 <HAL_RCC_OscConfig+0x610>
        }
      }
    }
  }
  return HAL_OK;
 80016b6:	2300      	movs	r3, #0
}
 80016b8:	0018      	movs	r0, r3
 80016ba:	46bd      	mov	sp, r7
 80016bc:	b008      	add	sp, #32
 80016be:	bd80      	pop	{r7, pc}
 80016c0:	40021000 	.word	0x40021000
 80016c4:	40007000 	.word	0x40007000
 80016c8:	00001388 	.word	0x00001388
 80016cc:	efffffff 	.word	0xefffffff
 80016d0:	feffffff 	.word	0xfeffffff
 80016d4:	11c1808c 	.word	0x11c1808c
 80016d8:	eefefffc 	.word	0xeefefffc

080016dc <HAL_RCC_ClockConfig>:
  *         HPRE[3:0] bits to ensure that HCLK not exceed the maximum allowed frequency
  *         (for more details refer to section above "Initialization/de-initialization functions")
  * @retval None
  */
HAL_StatusTypeDef HAL_RCC_ClockConfig(RCC_ClkInitTypeDef  *RCC_ClkInitStruct, uint32_t FLatency)
{
 80016dc:	b580      	push	{r7, lr}
 80016de:	b084      	sub	sp, #16
 80016e0:	af00      	add	r7, sp, #0
 80016e2:	6078      	str	r0, [r7, #4]
 80016e4:	6039      	str	r1, [r7, #0]
  uint32_t tickstart;

  /* Check Null pointer */
  if (RCC_ClkInitStruct == NULL)
 80016e6:	687b      	ldr	r3, [r7, #4]
 80016e8:	2b00      	cmp	r3, #0
 80016ea:	d101      	bne.n	80016f0 <HAL_RCC_ClockConfig+0x14>
  {
    return HAL_ERROR;
 80016ec:	2301      	movs	r3, #1
 80016ee:	e0e9      	b.n	80018c4 <HAL_RCC_ClockConfig+0x1e8>
  /* To correctly read data from FLASH memory, the number of wait states (LATENCY)
    must be correctly programmed according to the frequency of the FLASH clock
    (HCLK) and the supply voltage of the device. */

  /* Increasing the number of wait states because of higher CPU frequency */
  if (FLatency > __HAL_FLASH_GET_LATENCY())
 80016f0:	4b76      	ldr	r3, [pc, #472]	@ (80018cc <HAL_RCC_ClockConfig+0x1f0>)
 80016f2:	681b      	ldr	r3, [r3, #0]
 80016f4:	2207      	movs	r2, #7
 80016f6:	4013      	ands	r3, r2
 80016f8:	683a      	ldr	r2, [r7, #0]
 80016fa:	429a      	cmp	r2, r3
 80016fc:	d91e      	bls.n	800173c <HAL_RCC_ClockConfig+0x60>
  {
    /* Program the new number of wait states to the LATENCY bits in the FLASH_ACR register */
    __HAL_FLASH_SET_LATENCY(FLatency);
 80016fe:	4b73      	ldr	r3, [pc, #460]	@ (80018cc <HAL_RCC_ClockConfig+0x1f0>)
 8001700:	681b      	ldr	r3, [r3, #0]
 8001702:	2207      	movs	r2, #7
 8001704:	4393      	bics	r3, r2
 8001706:	0019      	movs	r1, r3
 8001708:	4b70      	ldr	r3, [pc, #448]	@ (80018cc <HAL_RCC_ClockConfig+0x1f0>)
 800170a:	683a      	ldr	r2, [r7, #0]
 800170c:	430a      	orrs	r2, r1
 800170e:	601a      	str	r2, [r3, #0]

    /* Check that the new number of wait states is taken into account to access the Flash
    memory by polling the FLASH_ACR register */
    tickstart = HAL_GetTick();
 8001710:	f7ff f9e0 	bl	8000ad4 <HAL_GetTick>
 8001714:	0003      	movs	r3, r0
 8001716:	60fb      	str	r3, [r7, #12]

    while ((FLASH->ACR & FLASH_ACR_LATENCY) != FLatency)
 8001718:	e009      	b.n	800172e <HAL_RCC_ClockConfig+0x52>
    {
      if ((HAL_GetTick() - tickstart) > CLOCKSWITCH_TIMEOUT_VALUE)
 800171a:	f7ff f9db 	bl	8000ad4 <HAL_GetTick>
 800171e:	0002      	movs	r2, r0
 8001720:	68fb      	ldr	r3, [r7, #12]
 8001722:	1ad3      	subs	r3, r2, r3
 8001724:	4a6a      	ldr	r2, [pc, #424]	@ (80018d0 <HAL_RCC_ClockConfig+0x1f4>)
 8001726:	4293      	cmp	r3, r2
 8001728:	d901      	bls.n	800172e <HAL_RCC_ClockConfig+0x52>
      {
        return HAL_TIMEOUT;
 800172a:	2303      	movs	r3, #3
 800172c:	e0ca      	b.n	80018c4 <HAL_RCC_ClockConfig+0x1e8>
    while ((FLASH->ACR & FLASH_ACR_LATENCY) != FLatency)
 800172e:	4b67      	ldr	r3, [pc, #412]	@ (80018cc <HAL_RCC_ClockConfig+0x1f0>)
 8001730:	681b      	ldr	r3, [r3, #0]
 8001732:	2207      	movs	r2, #7
 8001734:	4013      	ands	r3, r2
 8001736:	683a      	ldr	r2, [r7, #0]
 8001738:	429a      	cmp	r2, r3
 800173a:	d1ee      	bne.n	800171a <HAL_RCC_ClockConfig+0x3e>
      }
    }
  }

  /*-------------------------- HCLK Configuration --------------------------*/
  if (((RCC_ClkInitStruct->ClockType) & RCC_CLOCKTYPE_HCLK) == RCC_CLOCKTYPE_HCLK)
 800173c:	687b      	ldr	r3, [r7, #4]
 800173e:	681b      	ldr	r3, [r3, #0]
 8001740:	2202      	movs	r2, #2
 8001742:	4013      	ands	r3, r2
 8001744:	d015      	beq.n	8001772 <HAL_RCC_ClockConfig+0x96>
  {
    /* Set the highest APB divider in order to ensure that we do not go through
       a non-spec phase whatever we decrease or increase HCLK. */
    if (((RCC_ClkInitStruct->ClockType) & RCC_CLOCKTYPE_PCLK1) == RCC_CLOCKTYPE_PCLK1)
 8001746:	687b      	ldr	r3, [r7, #4]
 8001748:	681b      	ldr	r3, [r3, #0]
 800174a:	2204      	movs	r2, #4
 800174c:	4013      	ands	r3, r2
 800174e:	d006      	beq.n	800175e <HAL_RCC_ClockConfig+0x82>
    {
      MODIFY_REG(RCC->CFGR, RCC_CFGR_PPRE, RCC_HCLK_DIV16);
 8001750:	4b60      	ldr	r3, [pc, #384]	@ (80018d4 <HAL_RCC_ClockConfig+0x1f8>)
 8001752:	689a      	ldr	r2, [r3, #8]
 8001754:	4b5f      	ldr	r3, [pc, #380]	@ (80018d4 <HAL_RCC_ClockConfig+0x1f8>)
 8001756:	21e0      	movs	r1, #224	@ 0xe0
 8001758:	01c9      	lsls	r1, r1, #7
 800175a:	430a      	orrs	r2, r1
 800175c:	609a      	str	r2, [r3, #8]
    }

    /* Set the new HCLK clock divider */
    assert_param(IS_RCC_HCLK(RCC_ClkInitStruct->AHBCLKDivider));
    MODIFY_REG(RCC->CFGR, RCC_CFGR_HPRE, RCC_ClkInitStruct->AHBCLKDivider);
 800175e:	4b5d      	ldr	r3, [pc, #372]	@ (80018d4 <HAL_RCC_ClockConfig+0x1f8>)
 8001760:	689b      	ldr	r3, [r3, #8]
 8001762:	4a5d      	ldr	r2, [pc, #372]	@ (80018d8 <HAL_RCC_ClockConfig+0x1fc>)
 8001764:	4013      	ands	r3, r2
 8001766:	0019      	movs	r1, r3
 8001768:	687b      	ldr	r3, [r7, #4]
 800176a:	689a      	ldr	r2, [r3, #8]
 800176c:	4b59      	ldr	r3, [pc, #356]	@ (80018d4 <HAL_RCC_ClockConfig+0x1f8>)
 800176e:	430a      	orrs	r2, r1
 8001770:	609a      	str	r2, [r3, #8]
  }

  /*------------------------- SYSCLK Configuration ---------------------------*/
  if (((RCC_ClkInitStruct->ClockType) & RCC_CLOCKTYPE_SYSCLK) == RCC_CLOCKTYPE_SYSCLK)
 8001772:	687b      	ldr	r3, [r7, #4]
 8001774:	681b      	ldr	r3, [r3, #0]
 8001776:	2201      	movs	r2, #1
 8001778:	4013      	ands	r3, r2
 800177a:	d057      	beq.n	800182c <HAL_RCC_ClockConfig+0x150>
  {
    assert_param(IS_RCC_SYSCLKSOURCE(RCC_ClkInitStruct->SYSCLKSource));

    /* HSE is selected as System Clock Source */
    if (RCC_ClkInitStruct->SYSCLKSource == RCC_SYSCLKSOURCE_HSE)
 800177c:	687b      	ldr	r3, [r7, #4]
 800177e:	685b      	ldr	r3, [r3, #4]
 8001780:	2b01      	cmp	r3, #1
 8001782:	d107      	bne.n	8001794 <HAL_RCC_ClockConfig+0xb8>
    {
      /* Check the HSE ready flag */
      if (READ_BIT(RCC->CR, RCC_CR_HSERDY) == 0U)
 8001784:	4b53      	ldr	r3, [pc, #332]	@ (80018d4 <HAL_RCC_ClockConfig+0x1f8>)
 8001786:	681a      	ldr	r2, [r3, #0]
 8001788:	2380      	movs	r3, #128	@ 0x80
 800178a:	029b      	lsls	r3, r3, #10
 800178c:	4013      	ands	r3, r2
 800178e:	d12b      	bne.n	80017e8 <HAL_RCC_ClockConfig+0x10c>
      {
        return HAL_ERROR;
 8001790:	2301      	movs	r3, #1
 8001792:	e097      	b.n	80018c4 <HAL_RCC_ClockConfig+0x1e8>
      }
    }
    /* PLL is selected as System Clock Source */
    else if (RCC_ClkInitStruct->SYSCLKSource == RCC_SYSCLKSOURCE_PLLCLK)
 8001794:	687b      	ldr	r3, [r7, #4]
 8001796:	685b      	ldr	r3, [r3, #4]
 8001798:	2b02      	cmp	r3, #2
 800179a:	d107      	bne.n	80017ac <HAL_RCC_ClockConfig+0xd0>
    {
      /* Check the PLL ready flag */
      if (READ_BIT(RCC->CR, RCC_CR_PLLRDY) == 0U)
 800179c:	4b4d      	ldr	r3, [pc, #308]	@ (80018d4 <HAL_RCC_ClockConfig+0x1f8>)
 800179e:	681a      	ldr	r2, [r3, #0]
 80017a0:	2380      	movs	r3, #128	@ 0x80
 80017a2:	049b      	lsls	r3, r3, #18
 80017a4:	4013      	ands	r3, r2
 80017a6:	d11f      	bne.n	80017e8 <HAL_RCC_ClockConfig+0x10c>
      {
        return HAL_ERROR;
 80017a8:	2301      	movs	r3, #1
 80017aa:	e08b      	b.n	80018c4 <HAL_RCC_ClockConfig+0x1e8>
      }
    }
    /* HSI is selected as System Clock Source */
    else if (RCC_ClkInitStruct->SYSCLKSource == RCC_SYSCLKSOURCE_HSI)
 80017ac:	687b      	ldr	r3, [r7, #4]
 80017ae:	685b      	ldr	r3, [r3, #4]
 80017b0:	2b00      	cmp	r3, #0
 80017b2:	d107      	bne.n	80017c4 <HAL_RCC_ClockConfig+0xe8>
    {
      /* Check the HSI ready flag */
      if (READ_BIT(RCC->CR, RCC_CR_HSIRDY) == 0U)
 80017b4:	4b47      	ldr	r3, [pc, #284]	@ (80018d4 <HAL_RCC_ClockConfig+0x1f8>)
 80017b6:	681a      	ldr	r2, [r3, #0]
 80017b8:	2380      	movs	r3, #128	@ 0x80
 80017ba:	00db      	lsls	r3, r3, #3
 80017bc:	4013      	ands	r3, r2
 80017be:	d113      	bne.n	80017e8 <HAL_RCC_ClockConfig+0x10c>
      {
        return HAL_ERROR;
 80017c0:	2301      	movs	r3, #1
 80017c2:	e07f      	b.n	80018c4 <HAL_RCC_ClockConfig+0x1e8>
      }
    }
    /* LSI is selected as System Clock Source */
    else if (RCC_ClkInitStruct->SYSCLKSource == RCC_SYSCLKSOURCE_LSI)
 80017c4:	687b      	ldr	r3, [r7, #4]
 80017c6:	685b      	ldr	r3, [r3, #4]
 80017c8:	2b03      	cmp	r3, #3
 80017ca:	d106      	bne.n	80017da <HAL_RCC_ClockConfig+0xfe>
    {
      /* Check the LSI ready flag */
      if (READ_BIT(RCC->CSR, RCC_CSR_LSIRDY) == 0U)
 80017cc:	4b41      	ldr	r3, [pc, #260]	@ (80018d4 <HAL_RCC_ClockConfig+0x1f8>)
 80017ce:	6e1b      	ldr	r3, [r3, #96]	@ 0x60
 80017d0:	2202      	movs	r2, #2
 80017d2:	4013      	ands	r3, r2
 80017d4:	d108      	bne.n	80017e8 <HAL_RCC_ClockConfig+0x10c>
      {
        return HAL_ERROR;
 80017d6:	2301      	movs	r3, #1
 80017d8:	e074      	b.n	80018c4 <HAL_RCC_ClockConfig+0x1e8>
    }
    /* LSE is selected as System Clock Source */
    else
    {
      /* Check the LSE ready flag */
      if (READ_BIT(RCC->BDCR, RCC_BDCR_LSERDY) == 0U)
 80017da:	4b3e      	ldr	r3, [pc, #248]	@ (80018d4 <HAL_RCC_ClockConfig+0x1f8>)
 80017dc:	6ddb      	ldr	r3, [r3, #92]	@ 0x5c
 80017de:	2202      	movs	r2, #2
 80017e0:	4013      	ands	r3, r2
 80017e2:	d101      	bne.n	80017e8 <HAL_RCC_ClockConfig+0x10c>
      {
        return HAL_ERROR;
 80017e4:	2301      	movs	r3, #1
 80017e6:	e06d      	b.n	80018c4 <HAL_RCC_ClockConfig+0x1e8>
      }
    }
    MODIFY_REG(RCC->CFGR, RCC_CFGR_SW, RCC_ClkInitStruct->SYSCLKSource);
 80017e8:	4b3a      	ldr	r3, [pc, #232]	@ (80018d4 <HAL_RCC_ClockConfig+0x1f8>)
 80017ea:	689b      	ldr	r3, [r3, #8]
 80017ec:	2207      	movs	r2, #7
 80017ee:	4393      	bics	r3, r2
 80017f0:	0019      	movs	r1, r3
 80017f2:	687b      	ldr	r3, [r7, #4]
 80017f4:	685a      	ldr	r2, [r3, #4]
 80017f6:	4b37      	ldr	r3, [pc, #220]	@ (80018d4 <HAL_RCC_ClockConfig+0x1f8>)
 80017f8:	430a      	orrs	r2, r1
 80017fa:	609a      	str	r2, [r3, #8]

    /* Get Start Tick*/
    tickstart = HAL_GetTick();
 80017fc:	f7ff f96a 	bl	8000ad4 <HAL_GetTick>
 8001800:	0003      	movs	r3, r0
 8001802:	60fb      	str	r3, [r7, #12]

    while (__HAL_RCC_GET_SYSCLK_SOURCE() != (RCC_ClkInitStruct->SYSCLKSource << RCC_CFGR_SWS_Pos))
 8001804:	e009      	b.n	800181a <HAL_RCC_ClockConfig+0x13e>
    {
      if ((HAL_GetTick() - tickstart) > CLOCKSWITCH_TIMEOUT_VALUE)
 8001806:	f7ff f965 	bl	8000ad4 <HAL_GetTick>
 800180a:	0002      	movs	r2, r0
 800180c:	68fb      	ldr	r3, [r7, #12]
 800180e:	1ad3      	subs	r3, r2, r3
 8001810:	4a2f      	ldr	r2, [pc, #188]	@ (80018d0 <HAL_RCC_ClockConfig+0x1f4>)
 8001812:	4293      	cmp	r3, r2
 8001814:	d901      	bls.n	800181a <HAL_RCC_ClockConfig+0x13e>
      {
        return HAL_TIMEOUT;
 8001816:	2303      	movs	r3, #3
 8001818:	e054      	b.n	80018c4 <HAL_RCC_ClockConfig+0x1e8>
    while (__HAL_RCC_GET_SYSCLK_SOURCE() != (RCC_ClkInitStruct->SYSCLKSource << RCC_CFGR_SWS_Pos))
 800181a:	4b2e      	ldr	r3, [pc, #184]	@ (80018d4 <HAL_RCC_ClockConfig+0x1f8>)
 800181c:	689b      	ldr	r3, [r3, #8]
 800181e:	2238      	movs	r2, #56	@ 0x38
 8001820:	401a      	ands	r2, r3
 8001822:	687b      	ldr	r3, [r7, #4]
 8001824:	685b      	ldr	r3, [r3, #4]
 8001826:	00db      	lsls	r3, r3, #3
 8001828:	429a      	cmp	r2, r3
 800182a:	d1ec      	bne.n	8001806 <HAL_RCC_ClockConfig+0x12a>
      }
    }
  }

  /* Decreasing the number of wait states because of lower CPU frequency */
  if (FLatency < __HAL_FLASH_GET_LATENCY())
 800182c:	4b27      	ldr	r3, [pc, #156]	@ (80018cc <HAL_RCC_ClockConfig+0x1f0>)
 800182e:	681b      	ldr	r3, [r3, #0]
 8001830:	2207      	movs	r2, #7
 8001832:	4013      	ands	r3, r2
 8001834:	683a      	ldr	r2, [r7, #0]
 8001836:	429a      	cmp	r2, r3
 8001838:	d21e      	bcs.n	8001878 <HAL_RCC_ClockConfig+0x19c>
  {
    /* Program the new number of wait states to the LATENCY bits in the FLASH_ACR register */
    __HAL_FLASH_SET_LATENCY(FLatency);
 800183a:	4b24      	ldr	r3, [pc, #144]	@ (80018cc <HAL_RCC_ClockConfig+0x1f0>)
 800183c:	681b      	ldr	r3, [r3, #0]
 800183e:	2207      	movs	r2, #7
 8001840:	4393      	bics	r3, r2
 8001842:	0019      	movs	r1, r3
 8001844:	4b21      	ldr	r3, [pc, #132]	@ (80018cc <HAL_RCC_ClockConfig+0x1f0>)
 8001846:	683a      	ldr	r2, [r7, #0]
 8001848:	430a      	orrs	r2, r1
 800184a:	601a      	str	r2, [r3, #0]

    /* Check that the new number of wait states is taken into account to access the Flash
    memory by polling the FLASH_ACR register */
    tickstart = HAL_GetTick();
 800184c:	f7ff f942 	bl	8000ad4 <HAL_GetTick>
 8001850:	0003      	movs	r3, r0
 8001852:	60fb      	str	r3, [r7, #12]

    while ((FLASH->ACR & FLASH_ACR_LATENCY) != FLatency)
 8001854:	e009      	b.n	800186a <HAL_RCC_ClockConfig+0x18e>
    {
      if ((HAL_GetTick() - tickstart) > CLOCKSWITCH_TIMEOUT_VALUE)
 8001856:	f7ff f93d 	bl	8000ad4 <HAL_GetTick>
 800185a:	0002      	movs	r2, r0
 800185c:	68fb      	ldr	r3, [r7, #12]
 800185e:	1ad3      	subs	r3, r2, r3
 8001860:	4a1b      	ldr	r2, [pc, #108]	@ (80018d0 <HAL_RCC_ClockConfig+0x1f4>)
 8001862:	4293      	cmp	r3, r2
 8001864:	d901      	bls.n	800186a <HAL_RCC_ClockConfig+0x18e>
      {
        return HAL_TIMEOUT;
 8001866:	2303      	movs	r3, #3
 8001868:	e02c      	b.n	80018c4 <HAL_RCC_ClockConfig+0x1e8>
    while ((FLASH->ACR & FLASH_ACR_LATENCY) != FLatency)
 800186a:	4b18      	ldr	r3, [pc, #96]	@ (80018cc <HAL_RCC_ClockConfig+0x1f0>)
 800186c:	681b      	ldr	r3, [r3, #0]
 800186e:	2207      	movs	r2, #7
 8001870:	4013      	ands	r3, r2
 8001872:	683a      	ldr	r2, [r7, #0]
 8001874:	429a      	cmp	r2, r3
 8001876:	d1ee      	bne.n	8001856 <HAL_RCC_ClockConfig+0x17a>
      }
    }
  }

  /*-------------------------- PCLK1 Configuration ---------------------------*/
  if (((RCC_ClkInitStruct->ClockType) & RCC_CLOCKTYPE_PCLK1) == RCC_CLOCKTYPE_PCLK1)
 8001878:	687b      	ldr	r3, [r7, #4]
 800187a:	681b      	ldr	r3, [r3, #0]
 800187c:	2204      	movs	r2, #4
 800187e:	4013      	ands	r3, r2
 8001880:	d009      	beq.n	8001896 <HAL_RCC_ClockConfig+0x1ba>
  {
    assert_param(IS_RCC_PCLK(RCC_ClkInitStruct->APB1CLKDivider));
    MODIFY_REG(RCC->CFGR, RCC_CFGR_PPRE, RCC_ClkInitStruct->APB1CLKDivider);
 8001882:	4b14      	ldr	r3, [pc, #80]	@ (80018d4 <HAL_RCC_ClockConfig+0x1f8>)
 8001884:	689b      	ldr	r3, [r3, #8]
 8001886:	4a15      	ldr	r2, [pc, #84]	@ (80018dc <HAL_RCC_ClockConfig+0x200>)
 8001888:	4013      	ands	r3, r2
 800188a:	0019      	movs	r1, r3
 800188c:	687b      	ldr	r3, [r7, #4]
 800188e:	68da      	ldr	r2, [r3, #12]
 8001890:	4b10      	ldr	r3, [pc, #64]	@ (80018d4 <HAL_RCC_ClockConfig+0x1f8>)
 8001892:	430a      	orrs	r2, r1
 8001894:	609a      	str	r2, [r3, #8]
  }

  /* Update the SystemCoreClock global variable */
  SystemCoreClock = (HAL_RCC_GetSysClockFreq() >> ((AHBPrescTable[(RCC->CFGR & RCC_CFGR_HPRE) >> RCC_CFGR_HPRE_Pos]) & 0x1FU));
 8001896:	f000 f829 	bl	80018ec <HAL_RCC_GetSysClockFreq>
 800189a:	0001      	movs	r1, r0
 800189c:	4b0d      	ldr	r3, [pc, #52]	@ (80018d4 <HAL_RCC_ClockConfig+0x1f8>)
 800189e:	689b      	ldr	r3, [r3, #8]
 80018a0:	0a1b      	lsrs	r3, r3, #8
 80018a2:	220f      	movs	r2, #15
 80018a4:	401a      	ands	r2, r3
 80018a6:	4b0e      	ldr	r3, [pc, #56]	@ (80018e0 <HAL_RCC_ClockConfig+0x204>)
 80018a8:	0092      	lsls	r2, r2, #2
 80018aa:	58d3      	ldr	r3, [r2, r3]
 80018ac:	221f      	movs	r2, #31
 80018ae:	4013      	ands	r3, r2
 80018b0:	000a      	movs	r2, r1
 80018b2:	40da      	lsrs	r2, r3
 80018b4:	4b0b      	ldr	r3, [pc, #44]	@ (80018e4 <HAL_RCC_ClockConfig+0x208>)
 80018b6:	601a      	str	r2, [r3, #0]

  /* Configure the source of time base considering new system clocks settings*/
  return HAL_InitTick(uwTickPrio);
 80018b8:	4b0b      	ldr	r3, [pc, #44]	@ (80018e8 <HAL_RCC_ClockConfig+0x20c>)
 80018ba:	681b      	ldr	r3, [r3, #0]
 80018bc:	0018      	movs	r0, r3
 80018be:	f7ff f8ad 	bl	8000a1c <HAL_InitTick>
 80018c2:	0003      	movs	r3, r0
}
 80018c4:	0018      	movs	r0, r3
 80018c6:	46bd      	mov	sp, r7
 80018c8:	b004      	add	sp, #16
 80018ca:	bd80      	pop	{r7, pc}
 80018cc:	40022000 	.word	0x40022000
 80018d0:	00001388 	.word	0x00001388
 80018d4:	40021000 	.word	0x40021000
 80018d8:	fffff0ff 	.word	0xfffff0ff
 80018dc:	ffff8fff 	.word	0xffff8fff
 80018e0:	08002ad4 	.word	0x08002ad4
 80018e4:	20000000 	.word	0x20000000
 80018e8:	20000004 	.word	0x20000004

080018ec <HAL_RCC_GetSysClockFreq>:
  *
  *
  * @retval SYSCLK frequency
  */
uint32_t HAL_RCC_GetSysClockFreq(void)
{
 80018ec:	b580      	push	{r7, lr}
 80018ee:	b086      	sub	sp, #24
 80018f0:	af00      	add	r7, sp, #0
  uint32_t pllvco, pllsource, pllr, pllm, hsidiv;
  uint32_t sysclockfreq;

  if (__HAL_RCC_GET_SYSCLK_SOURCE() == RCC_SYSCLKSOURCE_STATUS_HSI)
 80018f2:	4b3c      	ldr	r3, [pc, #240]	@ (80019e4 <HAL_RCC_GetSysClockFreq+0xf8>)
 80018f4:	689b      	ldr	r3, [r3, #8]
 80018f6:	2238      	movs	r2, #56	@ 0x38
 80018f8:	4013      	ands	r3, r2
 80018fa:	d10f      	bne.n	800191c <HAL_RCC_GetSysClockFreq+0x30>
  {
    /* HSISYS can be derived for HSI16 */
    hsidiv = (1UL << ((READ_BIT(RCC->CR, RCC_CR_HSIDIV)) >> RCC_CR_HSIDIV_Pos));
 80018fc:	4b39      	ldr	r3, [pc, #228]	@ (80019e4 <HAL_RCC_GetSysClockFreq+0xf8>)
 80018fe:	681b      	ldr	r3, [r3, #0]
 8001900:	0adb      	lsrs	r3, r3, #11
 8001902:	2207      	movs	r2, #7
 8001904:	4013      	ands	r3, r2
 8001906:	2201      	movs	r2, #1
 8001908:	409a      	lsls	r2, r3
 800190a:	0013      	movs	r3, r2
 800190c:	603b      	str	r3, [r7, #0]

    /* HSI used as system clock source */
    sysclockfreq = (HSI_VALUE / hsidiv);
 800190e:	6839      	ldr	r1, [r7, #0]
 8001910:	4835      	ldr	r0, [pc, #212]	@ (80019e8 <HAL_RCC_GetSysClockFreq+0xfc>)
 8001912:	f7fe fbf7 	bl	8000104 <__udivsi3>
 8001916:	0003      	movs	r3, r0
 8001918:	613b      	str	r3, [r7, #16]
 800191a:	e05d      	b.n	80019d8 <HAL_RCC_GetSysClockFreq+0xec>
  }
  else if (__HAL_RCC_GET_SYSCLK_SOURCE() == RCC_SYSCLKSOURCE_STATUS_HSE)
 800191c:	4b31      	ldr	r3, [pc, #196]	@ (80019e4 <HAL_RCC_GetSysClockFreq+0xf8>)
 800191e:	689b      	ldr	r3, [r3, #8]
 8001920:	2238      	movs	r2, #56	@ 0x38
 8001922:	4013      	ands	r3, r2
 8001924:	2b08      	cmp	r3, #8
 8001926:	d102      	bne.n	800192e <HAL_RCC_GetSysClockFreq+0x42>
  {
    /* HSE used as system clock source */
    sysclockfreq = HSE_VALUE;
 8001928:	4b30      	ldr	r3, [pc, #192]	@ (80019ec <HAL_RCC_GetSysClockFreq+0x100>)
 800192a:	613b      	str	r3, [r7, #16]
 800192c:	e054      	b.n	80019d8 <HAL_RCC_GetSysClockFreq+0xec>
  }
  else if (__HAL_RCC_GET_SYSCLK_SOURCE() == RCC_SYSCLKSOURCE_STATUS_PLLCLK)
 800192e:	4b2d      	ldr	r3, [pc, #180]	@ (80019e4 <HAL_RCC_GetSysClockFreq+0xf8>)
 8001930:	689b      	ldr	r3, [r3, #8]
 8001932:	2238      	movs	r2, #56	@ 0x38
 8001934:	4013      	ands	r3, r2
 8001936:	2b10      	cmp	r3, #16
 8001938:	d138      	bne.n	80019ac <HAL_RCC_GetSysClockFreq+0xc0>
    /* PLL used as system clock  source */

    /* PLL_VCO = ((HSE_VALUE or HSI_VALUE)/ PLLM) * PLLN
    SYSCLK = PLL_VCO / PLLR
    */
    pllsource = (RCC->PLLCFGR & RCC_PLLCFGR_PLLSRC);
 800193a:	4b2a      	ldr	r3, [pc, #168]	@ (80019e4 <HAL_RCC_GetSysClockFreq+0xf8>)
 800193c:	68db      	ldr	r3, [r3, #12]
 800193e:	2203      	movs	r2, #3
 8001940:	4013      	ands	r3, r2
 8001942:	60fb      	str	r3, [r7, #12]
    pllm = ((RCC->PLLCFGR & RCC_PLLCFGR_PLLM) >> RCC_PLLCFGR_PLLM_Pos) + 1U ;
 8001944:	4b27      	ldr	r3, [pc, #156]	@ (80019e4 <HAL_RCC_GetSysClockFreq+0xf8>)
 8001946:	68db      	ldr	r3, [r3, #12]
 8001948:	091b      	lsrs	r3, r3, #4
 800194a:	2207      	movs	r2, #7
 800194c:	4013      	ands	r3, r2
 800194e:	3301      	adds	r3, #1
 8001950:	60bb      	str	r3, [r7, #8]

    switch (pllsource)
 8001952:	68fb      	ldr	r3, [r7, #12]
 8001954:	2b03      	cmp	r3, #3
 8001956:	d10d      	bne.n	8001974 <HAL_RCC_GetSysClockFreq+0x88>
    {
      case RCC_PLLSOURCE_HSE:  /* HSE used as PLL clock source */
        pllvco = (HSE_VALUE / pllm) * ((RCC->PLLCFGR & RCC_PLLCFGR_PLLN) >> RCC_PLLCFGR_PLLN_Pos);
 8001958:	68b9      	ldr	r1, [r7, #8]
 800195a:	4824      	ldr	r0, [pc, #144]	@ (80019ec <HAL_RCC_GetSysClockFreq+0x100>)
 800195c:	f7fe fbd2 	bl	8000104 <__udivsi3>
 8001960:	0003      	movs	r3, r0
 8001962:	0019      	movs	r1, r3
 8001964:	4b1f      	ldr	r3, [pc, #124]	@ (80019e4 <HAL_RCC_GetSysClockFreq+0xf8>)
 8001966:	68db      	ldr	r3, [r3, #12]
 8001968:	0a1b      	lsrs	r3, r3, #8
 800196a:	227f      	movs	r2, #127	@ 0x7f
 800196c:	4013      	ands	r3, r2
 800196e:	434b      	muls	r3, r1
 8001970:	617b      	str	r3, [r7, #20]
        break;
 8001972:	e00d      	b.n	8001990 <HAL_RCC_GetSysClockFreq+0xa4>

      case RCC_PLLSOURCE_HSI:  /* HSI16 used as PLL clock source */
      default:                 /* HSI16 used as PLL clock source */
        pllvco = (HSI_VALUE / pllm) * ((RCC->PLLCFGR & RCC_PLLCFGR_PLLN) >> RCC_PLLCFGR_PLLN_Pos) ;
 8001974:	68b9      	ldr	r1, [r7, #8]
 8001976:	481c      	ldr	r0, [pc, #112]	@ (80019e8 <HAL_RCC_GetSysClockFreq+0xfc>)
 8001978:	f7fe fbc4 	bl	8000104 <__udivsi3>
 800197c:	0003      	movs	r3, r0
 800197e:	0019      	movs	r1, r3
 8001980:	4b18      	ldr	r3, [pc, #96]	@ (80019e4 <HAL_RCC_GetSysClockFreq+0xf8>)
 8001982:	68db      	ldr	r3, [r3, #12]
 8001984:	0a1b      	lsrs	r3, r3, #8
 8001986:	227f      	movs	r2, #127	@ 0x7f
 8001988:	4013      	ands	r3, r2
 800198a:	434b      	muls	r3, r1
 800198c:	617b      	str	r3, [r7, #20]
        break;
 800198e:	46c0      	nop			@ (mov r8, r8)
    }
    pllr = (((RCC->PLLCFGR & RCC_PLLCFGR_PLLR) >> RCC_PLLCFGR_PLLR_Pos) + 1U);
 8001990:	4b14      	ldr	r3, [pc, #80]	@ (80019e4 <HAL_RCC_GetSysClockFreq+0xf8>)
 8001992:	68db      	ldr	r3, [r3, #12]
 8001994:	0f5b      	lsrs	r3, r3, #29
 8001996:	2207      	movs	r2, #7
 8001998:	4013      	ands	r3, r2
 800199a:	3301      	adds	r3, #1
 800199c:	607b      	str	r3, [r7, #4]
    sysclockfreq = pllvco / pllr;
 800199e:	6879      	ldr	r1, [r7, #4]
 80019a0:	6978      	ldr	r0, [r7, #20]
 80019a2:	f7fe fbaf 	bl	8000104 <__udivsi3>
 80019a6:	0003      	movs	r3, r0
 80019a8:	613b      	str	r3, [r7, #16]
 80019aa:	e015      	b.n	80019d8 <HAL_RCC_GetSysClockFreq+0xec>
  }
  else if (__HAL_RCC_GET_SYSCLK_SOURCE() == RCC_SYSCLKSOURCE_STATUS_LSE)
 80019ac:	4b0d      	ldr	r3, [pc, #52]	@ (80019e4 <HAL_RCC_GetSysClockFreq+0xf8>)
 80019ae:	689b      	ldr	r3, [r3, #8]
 80019b0:	2238      	movs	r2, #56	@ 0x38
 80019b2:	4013      	ands	r3, r2
 80019b4:	2b20      	cmp	r3, #32
 80019b6:	d103      	bne.n	80019c0 <HAL_RCC_GetSysClockFreq+0xd4>
  {
    /* LSE used as system clock source */
    sysclockfreq = LSE_VALUE;
 80019b8:	2380      	movs	r3, #128	@ 0x80
 80019ba:	021b      	lsls	r3, r3, #8
 80019bc:	613b      	str	r3, [r7, #16]
 80019be:	e00b      	b.n	80019d8 <HAL_RCC_GetSysClockFreq+0xec>
  }
  else if (__HAL_RCC_GET_SYSCLK_SOURCE() == RCC_SYSCLKSOURCE_STATUS_LSI)
 80019c0:	4b08      	ldr	r3, [pc, #32]	@ (80019e4 <HAL_RCC_GetSysClockFreq+0xf8>)
 80019c2:	689b      	ldr	r3, [r3, #8]
 80019c4:	2238      	movs	r2, #56	@ 0x38
 80019c6:	4013      	ands	r3, r2
 80019c8:	2b18      	cmp	r3, #24
 80019ca:	d103      	bne.n	80019d4 <HAL_RCC_GetSysClockFreq+0xe8>
  {
    /* LSI used as system clock source */
    sysclockfreq = LSI_VALUE;
 80019cc:	23fa      	movs	r3, #250	@ 0xfa
 80019ce:	01db      	lsls	r3, r3, #7
 80019d0:	613b      	str	r3, [r7, #16]
 80019d2:	e001      	b.n	80019d8 <HAL_RCC_GetSysClockFreq+0xec>
  }
  else
  {
    sysclockfreq = 0U;
 80019d4:	2300      	movs	r3, #0
 80019d6:	613b      	str	r3, [r7, #16]
  }

  return sysclockfreq;
 80019d8:	693b      	ldr	r3, [r7, #16]
}
 80019da:	0018      	movs	r0, r3
 80019dc:	46bd      	mov	sp, r7
 80019de:	b006      	add	sp, #24
 80019e0:	bd80      	pop	{r7, pc}
 80019e2:	46c0      	nop			@ (mov r8, r8)
 80019e4:	40021000 	.word	0x40021000
 80019e8:	00f42400 	.word	0x00f42400
 80019ec:	007a1200 	.word	0x007a1200

080019f0 <HAL_RCC_GetHCLKFreq>:
  *
  * @note   The SystemCoreClock CMSIS variable is used to store System Clock Frequency.
  * @retval HCLK frequency in Hz
  */
uint32_t HAL_RCC_GetHCLKFreq(void)
{
 80019f0:	b580      	push	{r7, lr}
 80019f2:	af00      	add	r7, sp, #0
  return SystemCoreClock;
 80019f4:	4b02      	ldr	r3, [pc, #8]	@ (8001a00 <HAL_RCC_GetHCLKFreq+0x10>)
 80019f6:	681b      	ldr	r3, [r3, #0]
}
 80019f8:	0018      	movs	r0, r3
 80019fa:	46bd      	mov	sp, r7
 80019fc:	bd80      	pop	{r7, pc}
 80019fe:	46c0      	nop			@ (mov r8, r8)
 8001a00:	20000000 	.word	0x20000000

08001a04 <HAL_RCC_GetPCLK1Freq>:
  * @note   Each time PCLK1 changes, this function must be called to update the
  *         right PCLK1 value. Otherwise, any configuration based on this function will be incorrect.
  * @retval PCLK1 frequency in Hz
  */
uint32_t HAL_RCC_GetPCLK1Freq(void)
{
 8001a04:	b5b0      	push	{r4, r5, r7, lr}
 8001a06:	af00      	add	r7, sp, #0
  /* Get HCLK source and Compute PCLK1 frequency ---------------------------*/
  return ((uint32_t)(__LL_RCC_CALC_PCLK1_FREQ(HAL_RCC_GetHCLKFreq(), LL_RCC_GetAPB1Prescaler())));
 8001a08:	f7ff fff2 	bl	80019f0 <HAL_RCC_GetHCLKFreq>
 8001a0c:	0004      	movs	r4, r0
 8001a0e:	f7ff fb3f 	bl	8001090 <LL_RCC_GetAPB1Prescaler>
 8001a12:	0003      	movs	r3, r0
 8001a14:	0b1a      	lsrs	r2, r3, #12
 8001a16:	4b05      	ldr	r3, [pc, #20]	@ (8001a2c <HAL_RCC_GetPCLK1Freq+0x28>)
 8001a18:	0092      	lsls	r2, r2, #2
 8001a1a:	58d3      	ldr	r3, [r2, r3]
 8001a1c:	221f      	movs	r2, #31
 8001a1e:	4013      	ands	r3, r2
 8001a20:	40dc      	lsrs	r4, r3
 8001a22:	0023      	movs	r3, r4
}
 8001a24:	0018      	movs	r0, r3
 8001a26:	46bd      	mov	sp, r7
 8001a28:	bdb0      	pop	{r4, r5, r7, pc}
 8001a2a:	46c0      	nop			@ (mov r8, r8)
 8001a2c:	08002b14 	.word	0x08002b14

08001a30 <HAL_RCCEx_PeriphCLKConfig>:
  *         the RTC clock source: in this case the access to Backup domain is enabled.
  *
  * @retval HAL status
  */
HAL_StatusTypeDef HAL_RCCEx_PeriphCLKConfig(RCC_PeriphCLKInitTypeDef  *PeriphClkInit)
{
 8001a30:	b580      	push	{r7, lr}
 8001a32:	b086      	sub	sp, #24
 8001a34:	af00      	add	r7, sp, #0
 8001a36:	6078      	str	r0, [r7, #4]
  uint32_t tmpregister;
  uint32_t tickstart;
  HAL_StatusTypeDef ret    = HAL_OK;   /* Intermediate status */
 8001a38:	2313      	movs	r3, #19
 8001a3a:	18fb      	adds	r3, r7, r3
 8001a3c:	2200      	movs	r2, #0
 8001a3e:	701a      	strb	r2, [r3, #0]
  HAL_StatusTypeDef status = HAL_OK;   /* Final status */
 8001a40:	2312      	movs	r3, #18
 8001a42:	18fb      	adds	r3, r7, r3
 8001a44:	2200      	movs	r2, #0
 8001a46:	701a      	strb	r2, [r3, #0]

  /* Check the parameters */
  assert_param(IS_RCC_PERIPHCLOCK(PeriphClkInit->PeriphClockSelection));

  /*-------------------------- RTC clock source configuration ----------------------*/
  if ((PeriphClkInit->PeriphClockSelection & RCC_PERIPHCLK_RTC) == RCC_PERIPHCLK_RTC)
 8001a48:	687b      	ldr	r3, [r7, #4]
 8001a4a:	681a      	ldr	r2, [r3, #0]
 8001a4c:	2380      	movs	r3, #128	@ 0x80
 8001a4e:	029b      	lsls	r3, r3, #10
 8001a50:	4013      	ands	r3, r2
 8001a52:	d100      	bne.n	8001a56 <HAL_RCCEx_PeriphCLKConfig+0x26>
 8001a54:	e0a3      	b.n	8001b9e <HAL_RCCEx_PeriphCLKConfig+0x16e>
  {
    FlagStatus       pwrclkchanged = RESET;
 8001a56:	2011      	movs	r0, #17
 8001a58:	183b      	adds	r3, r7, r0
 8001a5a:	2200      	movs	r2, #0
 8001a5c:	701a      	strb	r2, [r3, #0]

    /* Check for RTC Parameters used to output RTCCLK */
    assert_param(IS_RCC_RTCCLKSOURCE(PeriphClkInit->RTCClockSelection));

    /* Enable Power Clock */
    if (__HAL_RCC_PWR_IS_CLK_DISABLED())
 8001a5e:	4bc3      	ldr	r3, [pc, #780]	@ (8001d6c <HAL_RCCEx_PeriphCLKConfig+0x33c>)
 8001a60:	6bda      	ldr	r2, [r3, #60]	@ 0x3c
 8001a62:	2380      	movs	r3, #128	@ 0x80
 8001a64:	055b      	lsls	r3, r3, #21
 8001a66:	4013      	ands	r3, r2
 8001a68:	d110      	bne.n	8001a8c <HAL_RCCEx_PeriphCLKConfig+0x5c>
    {
      __HAL_RCC_PWR_CLK_ENABLE();
 8001a6a:	4bc0      	ldr	r3, [pc, #768]	@ (8001d6c <HAL_RCCEx_PeriphCLKConfig+0x33c>)
 8001a6c:	6bda      	ldr	r2, [r3, #60]	@ 0x3c
 8001a6e:	4bbf      	ldr	r3, [pc, #764]	@ (8001d6c <HAL_RCCEx_PeriphCLKConfig+0x33c>)
 8001a70:	2180      	movs	r1, #128	@ 0x80
 8001a72:	0549      	lsls	r1, r1, #21
 8001a74:	430a      	orrs	r2, r1
 8001a76:	63da      	str	r2, [r3, #60]	@ 0x3c
 8001a78:	4bbc      	ldr	r3, [pc, #752]	@ (8001d6c <HAL_RCCEx_PeriphCLKConfig+0x33c>)
 8001a7a:	6bda      	ldr	r2, [r3, #60]	@ 0x3c
 8001a7c:	2380      	movs	r3, #128	@ 0x80
 8001a7e:	055b      	lsls	r3, r3, #21
 8001a80:	4013      	ands	r3, r2
 8001a82:	60bb      	str	r3, [r7, #8]
 8001a84:	68bb      	ldr	r3, [r7, #8]
      pwrclkchanged = SET;
 8001a86:	183b      	adds	r3, r7, r0
 8001a88:	2201      	movs	r2, #1
 8001a8a:	701a      	strb	r2, [r3, #0]
    }

    /* Enable write access to Backup domain */
    SET_BIT(PWR->CR1, PWR_CR1_DBP);
 8001a8c:	4bb8      	ldr	r3, [pc, #736]	@ (8001d70 <HAL_RCCEx_PeriphCLKConfig+0x340>)
 8001a8e:	681a      	ldr	r2, [r3, #0]
 8001a90:	4bb7      	ldr	r3, [pc, #732]	@ (8001d70 <HAL_RCCEx_PeriphCLKConfig+0x340>)
 8001a92:	2180      	movs	r1, #128	@ 0x80
 8001a94:	0049      	lsls	r1, r1, #1
 8001a96:	430a      	orrs	r2, r1
 8001a98:	601a      	str	r2, [r3, #0]

    /* Wait for Backup domain Write protection disable */
    tickstart = HAL_GetTick();
 8001a9a:	f7ff f81b 	bl	8000ad4 <HAL_GetTick>
 8001a9e:	0003      	movs	r3, r0
 8001aa0:	60fb      	str	r3, [r7, #12]

    while ((PWR->CR1 & PWR_CR1_DBP) == 0U)
 8001aa2:	e00b      	b.n	8001abc <HAL_RCCEx_PeriphCLKConfig+0x8c>
    {
      if ((HAL_GetTick() - tickstart) > RCC_DBP_TIMEOUT_VALUE)
 8001aa4:	f7ff f816 	bl	8000ad4 <HAL_GetTick>
 8001aa8:	0002      	movs	r2, r0
 8001aaa:	68fb      	ldr	r3, [r7, #12]
 8001aac:	1ad3      	subs	r3, r2, r3
 8001aae:	2b02      	cmp	r3, #2
 8001ab0:	d904      	bls.n	8001abc <HAL_RCCEx_PeriphCLKConfig+0x8c>
      {
        ret = HAL_TIMEOUT;
 8001ab2:	2313      	movs	r3, #19
 8001ab4:	18fb      	adds	r3, r7, r3
 8001ab6:	2203      	movs	r2, #3
 8001ab8:	701a      	strb	r2, [r3, #0]
        break;
 8001aba:	e005      	b.n	8001ac8 <HAL_RCCEx_PeriphCLKConfig+0x98>
    while ((PWR->CR1 & PWR_CR1_DBP) == 0U)
 8001abc:	4bac      	ldr	r3, [pc, #688]	@ (8001d70 <HAL_RCCEx_PeriphCLKConfig+0x340>)
 8001abe:	681a      	ldr	r2, [r3, #0]
 8001ac0:	2380      	movs	r3, #128	@ 0x80
 8001ac2:	005b      	lsls	r3, r3, #1
 8001ac4:	4013      	ands	r3, r2
 8001ac6:	d0ed      	beq.n	8001aa4 <HAL_RCCEx_PeriphCLKConfig+0x74>
      }
    }

    if (ret == HAL_OK)
 8001ac8:	2313      	movs	r3, #19
 8001aca:	18fb      	adds	r3, r7, r3
 8001acc:	781b      	ldrb	r3, [r3, #0]
 8001ace:	2b00      	cmp	r3, #0
 8001ad0:	d154      	bne.n	8001b7c <HAL_RCCEx_PeriphCLKConfig+0x14c>
    {
      /* Reset the Backup domain only if the RTC Clock source selection is modified from default */
      tmpregister = READ_BIT(RCC->BDCR, RCC_BDCR_RTCSEL);
 8001ad2:	4ba6      	ldr	r3, [pc, #664]	@ (8001d6c <HAL_RCCEx_PeriphCLKConfig+0x33c>)
 8001ad4:	6dda      	ldr	r2, [r3, #92]	@ 0x5c
 8001ad6:	23c0      	movs	r3, #192	@ 0xc0
 8001ad8:	009b      	lsls	r3, r3, #2
 8001ada:	4013      	ands	r3, r2
 8001adc:	617b      	str	r3, [r7, #20]

      /* Reset the Backup domain only if the RTC Clock source selection is modified */
      if ((tmpregister != RCC_RTCCLKSOURCE_NONE) && (tmpregister != PeriphClkInit->RTCClockSelection))
 8001ade:	697b      	ldr	r3, [r7, #20]
 8001ae0:	2b00      	cmp	r3, #0
 8001ae2:	d019      	beq.n	8001b18 <HAL_RCCEx_PeriphCLKConfig+0xe8>
 8001ae4:	687b      	ldr	r3, [r7, #4]
 8001ae6:	6b1b      	ldr	r3, [r3, #48]	@ 0x30
 8001ae8:	697a      	ldr	r2, [r7, #20]
 8001aea:	429a      	cmp	r2, r3
 8001aec:	d014      	beq.n	8001b18 <HAL_RCCEx_PeriphCLKConfig+0xe8>
      {
        /* Store the content of BDCR register before the reset of Backup Domain */
        tmpregister = READ_BIT(RCC->BDCR, ~(RCC_BDCR_RTCSEL));
 8001aee:	4b9f      	ldr	r3, [pc, #636]	@ (8001d6c <HAL_RCCEx_PeriphCLKConfig+0x33c>)
 8001af0:	6ddb      	ldr	r3, [r3, #92]	@ 0x5c
 8001af2:	4aa0      	ldr	r2, [pc, #640]	@ (8001d74 <HAL_RCCEx_PeriphCLKConfig+0x344>)
 8001af4:	4013      	ands	r3, r2
 8001af6:	617b      	str	r3, [r7, #20]
        /* RTC Clock selection can be changed only if the Backup Domain is reset */
        __HAL_RCC_BACKUPRESET_FORCE();
 8001af8:	4b9c      	ldr	r3, [pc, #624]	@ (8001d6c <HAL_RCCEx_PeriphCLKConfig+0x33c>)
 8001afa:	6dda      	ldr	r2, [r3, #92]	@ 0x5c
 8001afc:	4b9b      	ldr	r3, [pc, #620]	@ (8001d6c <HAL_RCCEx_PeriphCLKConfig+0x33c>)
 8001afe:	2180      	movs	r1, #128	@ 0x80
 8001b00:	0249      	lsls	r1, r1, #9
 8001b02:	430a      	orrs	r2, r1
 8001b04:	65da      	str	r2, [r3, #92]	@ 0x5c
        __HAL_RCC_BACKUPRESET_RELEASE();
 8001b06:	4b99      	ldr	r3, [pc, #612]	@ (8001d6c <HAL_RCCEx_PeriphCLKConfig+0x33c>)
 8001b08:	6dda      	ldr	r2, [r3, #92]	@ 0x5c
 8001b0a:	4b98      	ldr	r3, [pc, #608]	@ (8001d6c <HAL_RCCEx_PeriphCLKConfig+0x33c>)
 8001b0c:	499a      	ldr	r1, [pc, #616]	@ (8001d78 <HAL_RCCEx_PeriphCLKConfig+0x348>)
 8001b0e:	400a      	ands	r2, r1
 8001b10:	65da      	str	r2, [r3, #92]	@ 0x5c
        /* Restore the Content of BDCR register */
        RCC->BDCR = tmpregister;
 8001b12:	4b96      	ldr	r3, [pc, #600]	@ (8001d6c <HAL_RCCEx_PeriphCLKConfig+0x33c>)
 8001b14:	697a      	ldr	r2, [r7, #20]
 8001b16:	65da      	str	r2, [r3, #92]	@ 0x5c
      }

      /* Wait for LSE reactivation if LSE was enable prior to Backup Domain reset */
      if (HAL_IS_BIT_SET(tmpregister, RCC_BDCR_LSEON))
 8001b18:	697b      	ldr	r3, [r7, #20]
 8001b1a:	2201      	movs	r2, #1
 8001b1c:	4013      	ands	r3, r2
 8001b1e:	d016      	beq.n	8001b4e <HAL_RCCEx_PeriphCLKConfig+0x11e>
      {
        /* Get Start Tick*/
        tickstart = HAL_GetTick();
 8001b20:	f7fe ffd8 	bl	8000ad4 <HAL_GetTick>
 8001b24:	0003      	movs	r3, r0
 8001b26:	60fb      	str	r3, [r7, #12]

        /* Wait till LSE is ready */
        while (READ_BIT(RCC->BDCR, RCC_BDCR_LSERDY) == 0U)
 8001b28:	e00c      	b.n	8001b44 <HAL_RCCEx_PeriphCLKConfig+0x114>
        {
          if ((HAL_GetTick() - tickstart) > RCC_LSE_TIMEOUT_VALUE)
 8001b2a:	f7fe ffd3 	bl	8000ad4 <HAL_GetTick>
 8001b2e:	0002      	movs	r2, r0
 8001b30:	68fb      	ldr	r3, [r7, #12]
 8001b32:	1ad3      	subs	r3, r2, r3
 8001b34:	4a91      	ldr	r2, [pc, #580]	@ (8001d7c <HAL_RCCEx_PeriphCLKConfig+0x34c>)
 8001b36:	4293      	cmp	r3, r2
 8001b38:	d904      	bls.n	8001b44 <HAL_RCCEx_PeriphCLKConfig+0x114>
          {
            ret = HAL_TIMEOUT;
 8001b3a:	2313      	movs	r3, #19
 8001b3c:	18fb      	adds	r3, r7, r3
 8001b3e:	2203      	movs	r2, #3
 8001b40:	701a      	strb	r2, [r3, #0]
            break;
 8001b42:	e004      	b.n	8001b4e <HAL_RCCEx_PeriphCLKConfig+0x11e>
        while (READ_BIT(RCC->BDCR, RCC_BDCR_LSERDY) == 0U)
 8001b44:	4b89      	ldr	r3, [pc, #548]	@ (8001d6c <HAL_RCCEx_PeriphCLKConfig+0x33c>)
 8001b46:	6ddb      	ldr	r3, [r3, #92]	@ 0x5c
 8001b48:	2202      	movs	r2, #2
 8001b4a:	4013      	ands	r3, r2
 8001b4c:	d0ed      	beq.n	8001b2a <HAL_RCCEx_PeriphCLKConfig+0xfa>
          }
        }
      }

      if (ret == HAL_OK)
 8001b4e:	2313      	movs	r3, #19
 8001b50:	18fb      	adds	r3, r7, r3
 8001b52:	781b      	ldrb	r3, [r3, #0]
 8001b54:	2b00      	cmp	r3, #0
 8001b56:	d10a      	bne.n	8001b6e <HAL_RCCEx_PeriphCLKConfig+0x13e>
      {
        /* Apply new RTC clock source selection */
        __HAL_RCC_RTC_CONFIG(PeriphClkInit->RTCClockSelection);
 8001b58:	4b84      	ldr	r3, [pc, #528]	@ (8001d6c <HAL_RCCEx_PeriphCLKConfig+0x33c>)
 8001b5a:	6ddb      	ldr	r3, [r3, #92]	@ 0x5c
 8001b5c:	4a85      	ldr	r2, [pc, #532]	@ (8001d74 <HAL_RCCEx_PeriphCLKConfig+0x344>)
 8001b5e:	4013      	ands	r3, r2
 8001b60:	0019      	movs	r1, r3
 8001b62:	687b      	ldr	r3, [r7, #4]
 8001b64:	6b1a      	ldr	r2, [r3, #48]	@ 0x30
 8001b66:	4b81      	ldr	r3, [pc, #516]	@ (8001d6c <HAL_RCCEx_PeriphCLKConfig+0x33c>)
 8001b68:	430a      	orrs	r2, r1
 8001b6a:	65da      	str	r2, [r3, #92]	@ 0x5c
 8001b6c:	e00c      	b.n	8001b88 <HAL_RCCEx_PeriphCLKConfig+0x158>
      }
      else
      {
        /* set overall return value */
        status = ret;
 8001b6e:	2312      	movs	r3, #18
 8001b70:	18fb      	adds	r3, r7, r3
 8001b72:	2213      	movs	r2, #19
 8001b74:	18ba      	adds	r2, r7, r2
 8001b76:	7812      	ldrb	r2, [r2, #0]
 8001b78:	701a      	strb	r2, [r3, #0]
 8001b7a:	e005      	b.n	8001b88 <HAL_RCCEx_PeriphCLKConfig+0x158>
      }
    }
    else
    {
      /* set overall return value */
      status = ret;
 8001b7c:	2312      	movs	r3, #18
 8001b7e:	18fb      	adds	r3, r7, r3
 8001b80:	2213      	movs	r2, #19
 8001b82:	18ba      	adds	r2, r7, r2
 8001b84:	7812      	ldrb	r2, [r2, #0]
 8001b86:	701a      	strb	r2, [r3, #0]
    }

    /* Restore clock configuration if changed */
    if (pwrclkchanged == SET)
 8001b88:	2311      	movs	r3, #17
 8001b8a:	18fb      	adds	r3, r7, r3
 8001b8c:	781b      	ldrb	r3, [r3, #0]
 8001b8e:	2b01      	cmp	r3, #1
 8001b90:	d105      	bne.n	8001b9e <HAL_RCCEx_PeriphCLKConfig+0x16e>
    {
      __HAL_RCC_PWR_CLK_DISABLE();
 8001b92:	4b76      	ldr	r3, [pc, #472]	@ (8001d6c <HAL_RCCEx_PeriphCLKConfig+0x33c>)
 8001b94:	6bda      	ldr	r2, [r3, #60]	@ 0x3c
 8001b96:	4b75      	ldr	r3, [pc, #468]	@ (8001d6c <HAL_RCCEx_PeriphCLKConfig+0x33c>)
 8001b98:	4979      	ldr	r1, [pc, #484]	@ (8001d80 <HAL_RCCEx_PeriphCLKConfig+0x350>)
 8001b9a:	400a      	ands	r2, r1
 8001b9c:	63da      	str	r2, [r3, #60]	@ 0x3c
    }
  }

  /*-------------------------- USART1 clock source configuration -------------------*/
  if (((PeriphClkInit->PeriphClockSelection) & RCC_PERIPHCLK_USART1) == RCC_PERIPHCLK_USART1)
 8001b9e:	687b      	ldr	r3, [r7, #4]
 8001ba0:	681b      	ldr	r3, [r3, #0]
 8001ba2:	2201      	movs	r2, #1
 8001ba4:	4013      	ands	r3, r2
 8001ba6:	d009      	beq.n	8001bbc <HAL_RCCEx_PeriphCLKConfig+0x18c>
  {
    /* Check the parameters */
    assert_param(IS_RCC_USART1CLKSOURCE(PeriphClkInit->Usart1ClockSelection));

    /* Configure the USART1 clock source */
    __HAL_RCC_USART1_CONFIG(PeriphClkInit->Usart1ClockSelection);
 8001ba8:	4b70      	ldr	r3, [pc, #448]	@ (8001d6c <HAL_RCCEx_PeriphCLKConfig+0x33c>)
 8001baa:	6d5b      	ldr	r3, [r3, #84]	@ 0x54
 8001bac:	2203      	movs	r2, #3
 8001bae:	4393      	bics	r3, r2
 8001bb0:	0019      	movs	r1, r3
 8001bb2:	687b      	ldr	r3, [r7, #4]
 8001bb4:	685a      	ldr	r2, [r3, #4]
 8001bb6:	4b6d      	ldr	r3, [pc, #436]	@ (8001d6c <HAL_RCCEx_PeriphCLKConfig+0x33c>)
 8001bb8:	430a      	orrs	r2, r1
 8001bba:	655a      	str	r2, [r3, #84]	@ 0x54
  }

#if defined(RCC_CCIPR_USART2SEL)
  /*-------------------------- USART2 clock source configuration -------------------*/
  if (((PeriphClkInit->PeriphClockSelection) & RCC_PERIPHCLK_USART2) == RCC_PERIPHCLK_USART2)
 8001bbc:	687b      	ldr	r3, [r7, #4]
 8001bbe:	681b      	ldr	r3, [r3, #0]
 8001bc0:	2202      	movs	r2, #2
 8001bc2:	4013      	ands	r3, r2
 8001bc4:	d009      	beq.n	8001bda <HAL_RCCEx_PeriphCLKConfig+0x1aa>
  {
    /* Check the parameters */
    assert_param(IS_RCC_USART2CLKSOURCE(PeriphClkInit->Usart2ClockSelection));

    /* Configure the USART2 clock source */
    __HAL_RCC_USART2_CONFIG(PeriphClkInit->Usart2ClockSelection);
 8001bc6:	4b69      	ldr	r3, [pc, #420]	@ (8001d6c <HAL_RCCEx_PeriphCLKConfig+0x33c>)
 8001bc8:	6d5b      	ldr	r3, [r3, #84]	@ 0x54
 8001bca:	220c      	movs	r2, #12
 8001bcc:	4393      	bics	r3, r2
 8001bce:	0019      	movs	r1, r3
 8001bd0:	687b      	ldr	r3, [r7, #4]
 8001bd2:	689a      	ldr	r2, [r3, #8]
 8001bd4:	4b65      	ldr	r3, [pc, #404]	@ (8001d6c <HAL_RCCEx_PeriphCLKConfig+0x33c>)
 8001bd6:	430a      	orrs	r2, r1
 8001bd8:	655a      	str	r2, [r3, #84]	@ 0x54
  }
#endif /* RCC_CCIPR_USART3SEL */

#if defined(LPUART1)
  /*-------------------------- LPUART1 clock source configuration ------------------*/
  if (((PeriphClkInit->PeriphClockSelection) & RCC_PERIPHCLK_LPUART1) == RCC_PERIPHCLK_LPUART1)
 8001bda:	687b      	ldr	r3, [r7, #4]
 8001bdc:	681b      	ldr	r3, [r3, #0]
 8001bde:	2210      	movs	r2, #16
 8001be0:	4013      	ands	r3, r2
 8001be2:	d009      	beq.n	8001bf8 <HAL_RCCEx_PeriphCLKConfig+0x1c8>
  {
    /* Check the parameters */
    assert_param(IS_RCC_LPUART1CLKSOURCE(PeriphClkInit->Lpuart1ClockSelection));

    /* Configure the LPUART1 clock source */
    __HAL_RCC_LPUART1_CONFIG(PeriphClkInit->Lpuart1ClockSelection);
 8001be4:	4b61      	ldr	r3, [pc, #388]	@ (8001d6c <HAL_RCCEx_PeriphCLKConfig+0x33c>)
 8001be6:	6d5b      	ldr	r3, [r3, #84]	@ 0x54
 8001be8:	4a66      	ldr	r2, [pc, #408]	@ (8001d84 <HAL_RCCEx_PeriphCLKConfig+0x354>)
 8001bea:	4013      	ands	r3, r2
 8001bec:	0019      	movs	r1, r3
 8001bee:	687b      	ldr	r3, [r7, #4]
 8001bf0:	68da      	ldr	r2, [r3, #12]
 8001bf2:	4b5e      	ldr	r3, [pc, #376]	@ (8001d6c <HAL_RCCEx_PeriphCLKConfig+0x33c>)
 8001bf4:	430a      	orrs	r2, r1
 8001bf6:	655a      	str	r2, [r3, #84]	@ 0x54
  }
#endif /* LPUART2 */

#if defined(RCC_CCIPR_LPTIM1SEL)
  /*-------------------------- LPTIM1 clock source configuration -------------------*/
  if (((PeriphClkInit->PeriphClockSelection) & RCC_PERIPHCLK_LPTIM1) == (RCC_PERIPHCLK_LPTIM1))
 8001bf8:	687b      	ldr	r3, [r7, #4]
 8001bfa:	681a      	ldr	r2, [r3, #0]
 8001bfc:	2380      	movs	r3, #128	@ 0x80
 8001bfe:	009b      	lsls	r3, r3, #2
 8001c00:	4013      	ands	r3, r2
 8001c02:	d009      	beq.n	8001c18 <HAL_RCCEx_PeriphCLKConfig+0x1e8>
  {
    assert_param(IS_RCC_LPTIM1CLKSOURCE(PeriphClkInit->Lptim1ClockSelection));
    __HAL_RCC_LPTIM1_CONFIG(PeriphClkInit->Lptim1ClockSelection);
 8001c04:	4b59      	ldr	r3, [pc, #356]	@ (8001d6c <HAL_RCCEx_PeriphCLKConfig+0x33c>)
 8001c06:	6d5b      	ldr	r3, [r3, #84]	@ 0x54
 8001c08:	4a5f      	ldr	r2, [pc, #380]	@ (8001d88 <HAL_RCCEx_PeriphCLKConfig+0x358>)
 8001c0a:	4013      	ands	r3, r2
 8001c0c:	0019      	movs	r1, r3
 8001c0e:	687b      	ldr	r3, [r7, #4]
 8001c10:	699a      	ldr	r2, [r3, #24]
 8001c12:	4b56      	ldr	r3, [pc, #344]	@ (8001d6c <HAL_RCCEx_PeriphCLKConfig+0x33c>)
 8001c14:	430a      	orrs	r2, r1
 8001c16:	655a      	str	r2, [r3, #84]	@ 0x54
  }
#endif /* RCC_CCIPR_LPTIM1SEL */

#if defined(RCC_CCIPR_LPTIM2SEL)
  /*-------------------------- LPTIM2 clock source configuration -------------------*/
  if (((PeriphClkInit->PeriphClockSelection) & RCC_PERIPHCLK_LPTIM2) == (RCC_PERIPHCLK_LPTIM2))
 8001c18:	687b      	ldr	r3, [r7, #4]
 8001c1a:	681a      	ldr	r2, [r3, #0]
 8001c1c:	2380      	movs	r3, #128	@ 0x80
 8001c1e:	00db      	lsls	r3, r3, #3
 8001c20:	4013      	ands	r3, r2
 8001c22:	d009      	beq.n	8001c38 <HAL_RCCEx_PeriphCLKConfig+0x208>
  {
    assert_param(IS_RCC_LPTIM2CLKSOURCE(PeriphClkInit->Lptim2ClockSelection));
    __HAL_RCC_LPTIM2_CONFIG(PeriphClkInit->Lptim2ClockSelection);
 8001c24:	4b51      	ldr	r3, [pc, #324]	@ (8001d6c <HAL_RCCEx_PeriphCLKConfig+0x33c>)
 8001c26:	6d5b      	ldr	r3, [r3, #84]	@ 0x54
 8001c28:	4a58      	ldr	r2, [pc, #352]	@ (8001d8c <HAL_RCCEx_PeriphCLKConfig+0x35c>)
 8001c2a:	4013      	ands	r3, r2
 8001c2c:	0019      	movs	r1, r3
 8001c2e:	687b      	ldr	r3, [r7, #4]
 8001c30:	69da      	ldr	r2, [r3, #28]
 8001c32:	4b4e      	ldr	r3, [pc, #312]	@ (8001d6c <HAL_RCCEx_PeriphCLKConfig+0x33c>)
 8001c34:	430a      	orrs	r2, r1
 8001c36:	655a      	str	r2, [r3, #84]	@ 0x54
  }
#endif /* RCC_CCIPR_LPTIM2SEL */

  /*-------------------------- I2C1 clock source configuration ---------------------*/
  if (((PeriphClkInit->PeriphClockSelection) & RCC_PERIPHCLK_I2C1) == RCC_PERIPHCLK_I2C1)
 8001c38:	687b      	ldr	r3, [r7, #4]
 8001c3a:	681b      	ldr	r3, [r3, #0]
 8001c3c:	2220      	movs	r2, #32
 8001c3e:	4013      	ands	r3, r2
 8001c40:	d009      	beq.n	8001c56 <HAL_RCCEx_PeriphCLKConfig+0x226>
  {
    /* Check the parameters */
    assert_param(IS_RCC_I2C1CLKSOURCE(PeriphClkInit->I2c1ClockSelection));

    /* Configure the I2C1 clock source */
    __HAL_RCC_I2C1_CONFIG(PeriphClkInit->I2c1ClockSelection);
 8001c42:	4b4a      	ldr	r3, [pc, #296]	@ (8001d6c <HAL_RCCEx_PeriphCLKConfig+0x33c>)
 8001c44:	6d5b      	ldr	r3, [r3, #84]	@ 0x54
 8001c46:	4a52      	ldr	r2, [pc, #328]	@ (8001d90 <HAL_RCCEx_PeriphCLKConfig+0x360>)
 8001c48:	4013      	ands	r3, r2
 8001c4a:	0019      	movs	r1, r3
 8001c4c:	687b      	ldr	r3, [r7, #4]
 8001c4e:	691a      	ldr	r2, [r3, #16]
 8001c50:	4b46      	ldr	r3, [pc, #280]	@ (8001d6c <HAL_RCCEx_PeriphCLKConfig+0x33c>)
 8001c52:	430a      	orrs	r2, r1
 8001c54:	655a      	str	r2, [r3, #84]	@ 0x54
      __HAL_RCC_PLLCLKOUT_ENABLE(RCC_PLLQCLK);
    }
  }
#endif /* RNG */
  /*-------------------------- ADC clock source configuration ----------------------*/
  if (((PeriphClkInit->PeriphClockSelection) & RCC_PERIPHCLK_ADC) == RCC_PERIPHCLK_ADC)
 8001c56:	687b      	ldr	r3, [r7, #4]
 8001c58:	681a      	ldr	r2, [r3, #0]
 8001c5a:	2380      	movs	r3, #128	@ 0x80
 8001c5c:	01db      	lsls	r3, r3, #7
 8001c5e:	4013      	ands	r3, r2
 8001c60:	d015      	beq.n	8001c8e <HAL_RCCEx_PeriphCLKConfig+0x25e>
  {
    /* Check the parameters */
    assert_param(IS_RCC_ADCCLKSOURCE(PeriphClkInit->AdcClockSelection));

    /* Configure the ADC interface clock source */
    __HAL_RCC_ADC_CONFIG(PeriphClkInit->AdcClockSelection);
 8001c62:	4b42      	ldr	r3, [pc, #264]	@ (8001d6c <HAL_RCCEx_PeriphCLKConfig+0x33c>)
 8001c64:	6d5b      	ldr	r3, [r3, #84]	@ 0x54
 8001c66:	009b      	lsls	r3, r3, #2
 8001c68:	0899      	lsrs	r1, r3, #2
 8001c6a:	687b      	ldr	r3, [r7, #4]
 8001c6c:	6a1a      	ldr	r2, [r3, #32]
 8001c6e:	4b3f      	ldr	r3, [pc, #252]	@ (8001d6c <HAL_RCCEx_PeriphCLKConfig+0x33c>)
 8001c70:	430a      	orrs	r2, r1
 8001c72:	655a      	str	r2, [r3, #84]	@ 0x54

    if (PeriphClkInit->AdcClockSelection == RCC_ADCCLKSOURCE_PLLADC)
 8001c74:	687b      	ldr	r3, [r7, #4]
 8001c76:	6a1a      	ldr	r2, [r3, #32]
 8001c78:	2380      	movs	r3, #128	@ 0x80
 8001c7a:	05db      	lsls	r3, r3, #23
 8001c7c:	429a      	cmp	r2, r3
 8001c7e:	d106      	bne.n	8001c8e <HAL_RCCEx_PeriphCLKConfig+0x25e>
    {
      /* Enable PLLPCLK output */
      __HAL_RCC_PLLCLKOUT_ENABLE(RCC_PLLPCLK);
 8001c80:	4b3a      	ldr	r3, [pc, #232]	@ (8001d6c <HAL_RCCEx_PeriphCLKConfig+0x33c>)
 8001c82:	68da      	ldr	r2, [r3, #12]
 8001c84:	4b39      	ldr	r3, [pc, #228]	@ (8001d6c <HAL_RCCEx_PeriphCLKConfig+0x33c>)
 8001c86:	2180      	movs	r1, #128	@ 0x80
 8001c88:	0249      	lsls	r1, r1, #9
 8001c8a:	430a      	orrs	r2, r1
 8001c8c:	60da      	str	r2, [r3, #12]
    }
  }

#if defined(CEC)
  /*-------------------------- CEC clock source configuration ---------------------*/
  if (((PeriphClkInit->PeriphClockSelection) & RCC_PERIPHCLK_CEC) == RCC_PERIPHCLK_CEC)
 8001c8e:	687b      	ldr	r3, [r7, #4]
 8001c90:	681a      	ldr	r2, [r3, #0]
 8001c92:	2380      	movs	r3, #128	@ 0x80
 8001c94:	031b      	lsls	r3, r3, #12
 8001c96:	4013      	ands	r3, r2
 8001c98:	d009      	beq.n	8001cae <HAL_RCCEx_PeriphCLKConfig+0x27e>
  {
    /* Check the parameters */
    assert_param(IS_RCC_CECCLKSOURCE(PeriphClkInit->CecClockSelection));

    /* Configure the CEC clock source */
    __HAL_RCC_CEC_CONFIG(PeriphClkInit->CecClockSelection);
 8001c9a:	4b34      	ldr	r3, [pc, #208]	@ (8001d6c <HAL_RCCEx_PeriphCLKConfig+0x33c>)
 8001c9c:	6d5b      	ldr	r3, [r3, #84]	@ 0x54
 8001c9e:	2240      	movs	r2, #64	@ 0x40
 8001ca0:	4393      	bics	r3, r2
 8001ca2:	0019      	movs	r1, r3
 8001ca4:	687b      	ldr	r3, [r7, #4]
 8001ca6:	6a5a      	ldr	r2, [r3, #36]	@ 0x24
 8001ca8:	4b30      	ldr	r3, [pc, #192]	@ (8001d6c <HAL_RCCEx_PeriphCLKConfig+0x33c>)
 8001caa:	430a      	orrs	r2, r1
 8001cac:	655a      	str	r2, [r3, #84]	@ 0x54
  }
#endif /* CEC */

#if defined(RCC_CCIPR_TIM1SEL)
  /*-------------------------- TIM1 clock source configuration ---------------------*/
  if (((PeriphClkInit->PeriphClockSelection) & RCC_PERIPHCLK_TIM1) == RCC_PERIPHCLK_TIM1)
 8001cae:	687b      	ldr	r3, [r7, #4]
 8001cb0:	681a      	ldr	r2, [r3, #0]
 8001cb2:	2380      	movs	r3, #128	@ 0x80
 8001cb4:	039b      	lsls	r3, r3, #14
 8001cb6:	4013      	ands	r3, r2
 8001cb8:	d016      	beq.n	8001ce8 <HAL_RCCEx_PeriphCLKConfig+0x2b8>
  {
    /* Check the parameters */
    assert_param(IS_RCC_TIM1CLKSOURCE(PeriphClkInit->Tim1ClockSelection));

    /* Configure the TIM1 clock source */
    __HAL_RCC_TIM1_CONFIG(PeriphClkInit->Tim1ClockSelection);
 8001cba:	4b2c      	ldr	r3, [pc, #176]	@ (8001d6c <HAL_RCCEx_PeriphCLKConfig+0x33c>)
 8001cbc:	6d5b      	ldr	r3, [r3, #84]	@ 0x54
 8001cbe:	4a35      	ldr	r2, [pc, #212]	@ (8001d94 <HAL_RCCEx_PeriphCLKConfig+0x364>)
 8001cc0:	4013      	ands	r3, r2
 8001cc2:	0019      	movs	r1, r3
 8001cc4:	687b      	ldr	r3, [r7, #4]
 8001cc6:	6a9a      	ldr	r2, [r3, #40]	@ 0x28
 8001cc8:	4b28      	ldr	r3, [pc, #160]	@ (8001d6c <HAL_RCCEx_PeriphCLKConfig+0x33c>)
 8001cca:	430a      	orrs	r2, r1
 8001ccc:	655a      	str	r2, [r3, #84]	@ 0x54

    if (PeriphClkInit->Tim1ClockSelection == RCC_TIM1CLKSOURCE_PLL)
 8001cce:	687b      	ldr	r3, [r7, #4]
 8001cd0:	6a9a      	ldr	r2, [r3, #40]	@ 0x28
 8001cd2:	2380      	movs	r3, #128	@ 0x80
 8001cd4:	03db      	lsls	r3, r3, #15
 8001cd6:	429a      	cmp	r2, r3
 8001cd8:	d106      	bne.n	8001ce8 <HAL_RCCEx_PeriphCLKConfig+0x2b8>
    {
      /* Enable PLLQCLK output */
      __HAL_RCC_PLLCLKOUT_ENABLE(RCC_PLLQCLK);
 8001cda:	4b24      	ldr	r3, [pc, #144]	@ (8001d6c <HAL_RCCEx_PeriphCLKConfig+0x33c>)
 8001cdc:	68da      	ldr	r2, [r3, #12]
 8001cde:	4b23      	ldr	r3, [pc, #140]	@ (8001d6c <HAL_RCCEx_PeriphCLKConfig+0x33c>)
 8001ce0:	2180      	movs	r1, #128	@ 0x80
 8001ce2:	0449      	lsls	r1, r1, #17
 8001ce4:	430a      	orrs	r2, r1
 8001ce6:	60da      	str	r2, [r3, #12]
  }
#endif /* RCC_CCIPR_TIM1SEL */

#if defined(RCC_CCIPR_TIM15SEL)
  /*-------------------------- TIM15 clock source configuration ---------------------*/
  if (((PeriphClkInit->PeriphClockSelection) & RCC_PERIPHCLK_TIM15) == RCC_PERIPHCLK_TIM15)
 8001ce8:	687b      	ldr	r3, [r7, #4]
 8001cea:	681a      	ldr	r2, [r3, #0]
 8001cec:	2380      	movs	r3, #128	@ 0x80
 8001cee:	03db      	lsls	r3, r3, #15
 8001cf0:	4013      	ands	r3, r2
 8001cf2:	d016      	beq.n	8001d22 <HAL_RCCEx_PeriphCLKConfig+0x2f2>
  {
    /* Check the parameters */
    assert_param(IS_RCC_TIM15CLKSOURCE(PeriphClkInit->Tim15ClockSelection));

    /* Configure the TIM15 clock source */
    __HAL_RCC_TIM15_CONFIG(PeriphClkInit->Tim15ClockSelection);
 8001cf4:	4b1d      	ldr	r3, [pc, #116]	@ (8001d6c <HAL_RCCEx_PeriphCLKConfig+0x33c>)
 8001cf6:	6d5b      	ldr	r3, [r3, #84]	@ 0x54
 8001cf8:	4a27      	ldr	r2, [pc, #156]	@ (8001d98 <HAL_RCCEx_PeriphCLKConfig+0x368>)
 8001cfa:	4013      	ands	r3, r2
 8001cfc:	0019      	movs	r1, r3
 8001cfe:	687b      	ldr	r3, [r7, #4]
 8001d00:	6ada      	ldr	r2, [r3, #44]	@ 0x2c
 8001d02:	4b1a      	ldr	r3, [pc, #104]	@ (8001d6c <HAL_RCCEx_PeriphCLKConfig+0x33c>)
 8001d04:	430a      	orrs	r2, r1
 8001d06:	655a      	str	r2, [r3, #84]	@ 0x54

    if (PeriphClkInit->Tim15ClockSelection == RCC_TIM15CLKSOURCE_PLL)
 8001d08:	687b      	ldr	r3, [r7, #4]
 8001d0a:	6ada      	ldr	r2, [r3, #44]	@ 0x2c
 8001d0c:	2380      	movs	r3, #128	@ 0x80
 8001d0e:	045b      	lsls	r3, r3, #17
 8001d10:	429a      	cmp	r2, r3
 8001d12:	d106      	bne.n	8001d22 <HAL_RCCEx_PeriphCLKConfig+0x2f2>
    {
      /* Enable PLLQCLK output */
      __HAL_RCC_PLLCLKOUT_ENABLE(RCC_PLLQCLK);
 8001d14:	4b15      	ldr	r3, [pc, #84]	@ (8001d6c <HAL_RCCEx_PeriphCLKConfig+0x33c>)
 8001d16:	68da      	ldr	r2, [r3, #12]
 8001d18:	4b14      	ldr	r3, [pc, #80]	@ (8001d6c <HAL_RCCEx_PeriphCLKConfig+0x33c>)
 8001d1a:	2180      	movs	r1, #128	@ 0x80
 8001d1c:	0449      	lsls	r1, r1, #17
 8001d1e:	430a      	orrs	r2, r1
 8001d20:	60da      	str	r2, [r3, #12]
    }
  }
#endif /* RCC_CCIPR_TIM15SEL */

  /*-------------------------- I2S1 clock source configuration ---------------------*/
  if (((PeriphClkInit->PeriphClockSelection) & RCC_PERIPHCLK_I2S1) == RCC_PERIPHCLK_I2S1)
 8001d22:	687b      	ldr	r3, [r7, #4]
 8001d24:	681a      	ldr	r2, [r3, #0]
 8001d26:	2380      	movs	r3, #128	@ 0x80
 8001d28:	011b      	lsls	r3, r3, #4
 8001d2a:	4013      	ands	r3, r2
 8001d2c:	d016      	beq.n	8001d5c <HAL_RCCEx_PeriphCLKConfig+0x32c>
  {
    /* Check the parameters */
    assert_param(IS_RCC_I2S1CLKSOURCE(PeriphClkInit->I2s1ClockSelection));

    /* Configure the I2S1 clock source */
    __HAL_RCC_I2S1_CONFIG(PeriphClkInit->I2s1ClockSelection);
 8001d2e:	4b0f      	ldr	r3, [pc, #60]	@ (8001d6c <HAL_RCCEx_PeriphCLKConfig+0x33c>)
 8001d30:	6d5b      	ldr	r3, [r3, #84]	@ 0x54
 8001d32:	4a1a      	ldr	r2, [pc, #104]	@ (8001d9c <HAL_RCCEx_PeriphCLKConfig+0x36c>)
 8001d34:	4013      	ands	r3, r2
 8001d36:	0019      	movs	r1, r3
 8001d38:	687b      	ldr	r3, [r7, #4]
 8001d3a:	695a      	ldr	r2, [r3, #20]
 8001d3c:	4b0b      	ldr	r3, [pc, #44]	@ (8001d6c <HAL_RCCEx_PeriphCLKConfig+0x33c>)
 8001d3e:	430a      	orrs	r2, r1
 8001d40:	655a      	str	r2, [r3, #84]	@ 0x54

    if (PeriphClkInit->I2s1ClockSelection == RCC_I2S1CLKSOURCE_PLL)
 8001d42:	687b      	ldr	r3, [r7, #4]
 8001d44:	695a      	ldr	r2, [r3, #20]
 8001d46:	2380      	movs	r3, #128	@ 0x80
 8001d48:	01db      	lsls	r3, r3, #7
 8001d4a:	429a      	cmp	r2, r3
 8001d4c:	d106      	bne.n	8001d5c <HAL_RCCEx_PeriphCLKConfig+0x32c>
    {
      /* Enable PLLPCLK output */
      __HAL_RCC_PLLCLKOUT_ENABLE(RCC_PLLPCLK);
 8001d4e:	4b07      	ldr	r3, [pc, #28]	@ (8001d6c <HAL_RCCEx_PeriphCLKConfig+0x33c>)
 8001d50:	68da      	ldr	r2, [r3, #12]
 8001d52:	4b06      	ldr	r3, [pc, #24]	@ (8001d6c <HAL_RCCEx_PeriphCLKConfig+0x33c>)
 8001d54:	2180      	movs	r1, #128	@ 0x80
 8001d56:	0249      	lsls	r1, r1, #9
 8001d58:	430a      	orrs	r2, r1
 8001d5a:	60da      	str	r2, [r3, #12]
      __HAL_RCC_PLLCLKOUT_ENABLE(RCC_PLLQCLK);
    }
  }
#endif /* FDCAN1 || FDCAN2 */

  return status;
 8001d5c:	2312      	movs	r3, #18
 8001d5e:	18fb      	adds	r3, r7, r3
 8001d60:	781b      	ldrb	r3, [r3, #0]
}
 8001d62:	0018      	movs	r0, r3
 8001d64:	46bd      	mov	sp, r7
 8001d66:	b006      	add	sp, #24
 8001d68:	bd80      	pop	{r7, pc}
 8001d6a:	46c0      	nop			@ (mov r8, r8)
 8001d6c:	40021000 	.word	0x40021000
 8001d70:	40007000 	.word	0x40007000
 8001d74:	fffffcff 	.word	0xfffffcff
 8001d78:	fffeffff 	.word	0xfffeffff
 8001d7c:	00001388 	.word	0x00001388
 8001d80:	efffffff 	.word	0xefffffff
 8001d84:	fffff3ff 	.word	0xfffff3ff
 8001d88:	fff3ffff 	.word	0xfff3ffff
 8001d8c:	ffcfffff 	.word	0xffcfffff
 8001d90:	ffffcfff 	.word	0xffffcfff
 8001d94:	ffbfffff 	.word	0xffbfffff
 8001d98:	feffffff 	.word	0xfeffffff
 8001d9c:	ffff3fff 	.word	0xffff3fff

08001da0 <HAL_UART_Init>:
  *        parameters in the UART_InitTypeDef and initialize the associated handle.
  * @param huart UART handle.
  * @retval HAL status
  */
HAL_StatusTypeDef HAL_UART_Init(UART_HandleTypeDef *huart)
{
 8001da0:	b580      	push	{r7, lr}
 8001da2:	b082      	sub	sp, #8
 8001da4:	af00      	add	r7, sp, #0
 8001da6:	6078      	str	r0, [r7, #4]
  /* Check the UART handle allocation */
  if (huart == NULL)
 8001da8:	687b      	ldr	r3, [r7, #4]
 8001daa:	2b00      	cmp	r3, #0
 8001dac:	d101      	bne.n	8001db2 <HAL_UART_Init+0x12>
  {
    return HAL_ERROR;
 8001dae:	2301      	movs	r3, #1
 8001db0:	e046      	b.n	8001e40 <HAL_UART_Init+0xa0>
  {
    /* Check the parameters */
    assert_param((IS_UART_INSTANCE(huart->Instance)) || (IS_LPUART_INSTANCE(huart->Instance)));
  }

  if (huart->gState == HAL_UART_STATE_RESET)
 8001db2:	687b      	ldr	r3, [r7, #4]
 8001db4:	2288      	movs	r2, #136	@ 0x88
 8001db6:	589b      	ldr	r3, [r3, r2]
 8001db8:	2b00      	cmp	r3, #0
 8001dba:	d107      	bne.n	8001dcc <HAL_UART_Init+0x2c>
  {
    /* Allocate lock resource and initialize it */
    huart->Lock = HAL_UNLOCKED;
 8001dbc:	687b      	ldr	r3, [r7, #4]
 8001dbe:	2284      	movs	r2, #132	@ 0x84
 8001dc0:	2100      	movs	r1, #0
 8001dc2:	5499      	strb	r1, [r3, r2]

    /* Init the low level hardware */
    huart->MspInitCallback(huart);
#else
    /* Init the low level hardware : GPIO, CLOCK */
    HAL_UART_MspInit(huart);
 8001dc4:	687b      	ldr	r3, [r7, #4]
 8001dc6:	0018      	movs	r0, r3
 8001dc8:	f7fe fd7e 	bl	80008c8 <HAL_UART_MspInit>
#endif /* (USE_HAL_UART_REGISTER_CALLBACKS) */
  }

  huart->gState = HAL_UART_STATE_BUSY;
 8001dcc:	687b      	ldr	r3, [r7, #4]
 8001dce:	2288      	movs	r2, #136	@ 0x88
 8001dd0:	2124      	movs	r1, #36	@ 0x24
 8001dd2:	5099      	str	r1, [r3, r2]

  __HAL_UART_DISABLE(huart);
 8001dd4:	687b      	ldr	r3, [r7, #4]
 8001dd6:	681b      	ldr	r3, [r3, #0]
 8001dd8:	681a      	ldr	r2, [r3, #0]
 8001dda:	687b      	ldr	r3, [r7, #4]
 8001ddc:	681b      	ldr	r3, [r3, #0]
 8001dde:	2101      	movs	r1, #1
 8001de0:	438a      	bics	r2, r1
 8001de2:	601a      	str	r2, [r3, #0]

  /* Perform advanced settings configuration */
  /* For some items, configuration requires to be done prior TE and RE bits are set */
  if (huart->AdvancedInit.AdvFeatureInit != UART_ADVFEATURE_NO_INIT)
 8001de4:	687b      	ldr	r3, [r7, #4]
 8001de6:	6a9b      	ldr	r3, [r3, #40]	@ 0x28
 8001de8:	2b00      	cmp	r3, #0
 8001dea:	d003      	beq.n	8001df4 <HAL_UART_Init+0x54>
  {
    UART_AdvFeatureConfig(huart);
 8001dec:	687b      	ldr	r3, [r7, #4]
 8001dee:	0018      	movs	r0, r3
 8001df0:	f000 faea 	bl	80023c8 <UART_AdvFeatureConfig>
  }

  /* Set the UART Communication parameters */
  if (UART_SetConfig(huart) == HAL_ERROR)
 8001df4:	687b      	ldr	r3, [r7, #4]
 8001df6:	0018      	movs	r0, r3
 8001df8:	f000 f828 	bl	8001e4c <UART_SetConfig>
 8001dfc:	0003      	movs	r3, r0
 8001dfe:	2b01      	cmp	r3, #1
 8001e00:	d101      	bne.n	8001e06 <HAL_UART_Init+0x66>
  {
    return HAL_ERROR;
 8001e02:	2301      	movs	r3, #1
 8001e04:	e01c      	b.n	8001e40 <HAL_UART_Init+0xa0>
  }

  /* In asynchronous mode, the following bits must be kept cleared:
  - LINEN and CLKEN bits in the USART_CR2 register,
  - SCEN, HDSEL and IREN  bits in the USART_CR3 register.*/
  CLEAR_BIT(huart->Instance->CR2, (USART_CR2_LINEN | USART_CR2_CLKEN));
 8001e06:	687b      	ldr	r3, [r7, #4]
 8001e08:	681b      	ldr	r3, [r3, #0]
 8001e0a:	685a      	ldr	r2, [r3, #4]
 8001e0c:	687b      	ldr	r3, [r7, #4]
 8001e0e:	681b      	ldr	r3, [r3, #0]
 8001e10:	490d      	ldr	r1, [pc, #52]	@ (8001e48 <HAL_UART_Init+0xa8>)
 8001e12:	400a      	ands	r2, r1
 8001e14:	605a      	str	r2, [r3, #4]
  CLEAR_BIT(huart->Instance->CR3, (USART_CR3_SCEN | USART_CR3_HDSEL | USART_CR3_IREN));
 8001e16:	687b      	ldr	r3, [r7, #4]
 8001e18:	681b      	ldr	r3, [r3, #0]
 8001e1a:	689a      	ldr	r2, [r3, #8]
 8001e1c:	687b      	ldr	r3, [r7, #4]
 8001e1e:	681b      	ldr	r3, [r3, #0]
 8001e20:	212a      	movs	r1, #42	@ 0x2a
 8001e22:	438a      	bics	r2, r1
 8001e24:	609a      	str	r2, [r3, #8]

  __HAL_UART_ENABLE(huart);
 8001e26:	687b      	ldr	r3, [r7, #4]
 8001e28:	681b      	ldr	r3, [r3, #0]
 8001e2a:	681a      	ldr	r2, [r3, #0]
 8001e2c:	687b      	ldr	r3, [r7, #4]
 8001e2e:	681b      	ldr	r3, [r3, #0]
 8001e30:	2101      	movs	r1, #1
 8001e32:	430a      	orrs	r2, r1
 8001e34:	601a      	str	r2, [r3, #0]

  /* TEACK and/or REACK to check before moving huart->gState and huart->RxState to Ready */
  return (UART_CheckIdleState(huart));
 8001e36:	687b      	ldr	r3, [r7, #4]
 8001e38:	0018      	movs	r0, r3
 8001e3a:	f000 fb79 	bl	8002530 <UART_CheckIdleState>
 8001e3e:	0003      	movs	r3, r0
}
 8001e40:	0018      	movs	r0, r3
 8001e42:	46bd      	mov	sp, r7
 8001e44:	b002      	add	sp, #8
 8001e46:	bd80      	pop	{r7, pc}
 8001e48:	ffffb7ff 	.word	0xffffb7ff

08001e4c <UART_SetConfig>:
  * @brief Configure the UART peripheral.
  * @param huart UART handle.
  * @retval HAL status
  */
HAL_StatusTypeDef UART_SetConfig(UART_HandleTypeDef *huart)
{
 8001e4c:	b5b0      	push	{r4, r5, r7, lr}
 8001e4e:	b090      	sub	sp, #64	@ 0x40
 8001e50:	af00      	add	r7, sp, #0
 8001e52:	6278      	str	r0, [r7, #36]	@ 0x24
  uint32_t tmpreg;
  uint16_t brrtemp;
  UART_ClockSourceTypeDef clocksource;
  uint32_t usartdiv;
  HAL_StatusTypeDef ret               = HAL_OK;
 8001e54:	231a      	movs	r3, #26
 8001e56:	2220      	movs	r2, #32
 8001e58:	189b      	adds	r3, r3, r2
 8001e5a:	19db      	adds	r3, r3, r7
 8001e5c:	2200      	movs	r2, #0
 8001e5e:	701a      	strb	r2, [r3, #0]
  *  the UART Word Length, Parity, Mode and oversampling:
  *  set the M bits according to huart->Init.WordLength value
  *  set PCE and PS bits according to huart->Init.Parity value
  *  set TE and RE bits according to huart->Init.Mode value
  *  set OVER8 bit according to huart->Init.OverSampling value */
  tmpreg = (uint32_t)huart->Init.WordLength | huart->Init.Parity | huart->Init.Mode | huart->Init.OverSampling ;
 8001e60:	6a7b      	ldr	r3, [r7, #36]	@ 0x24
 8001e62:	689a      	ldr	r2, [r3, #8]
 8001e64:	6a7b      	ldr	r3, [r7, #36]	@ 0x24
 8001e66:	691b      	ldr	r3, [r3, #16]
 8001e68:	431a      	orrs	r2, r3
 8001e6a:	6a7b      	ldr	r3, [r7, #36]	@ 0x24
 8001e6c:	695b      	ldr	r3, [r3, #20]
 8001e6e:	431a      	orrs	r2, r3
 8001e70:	6a7b      	ldr	r3, [r7, #36]	@ 0x24
 8001e72:	69db      	ldr	r3, [r3, #28]
 8001e74:	4313      	orrs	r3, r2
 8001e76:	63fb      	str	r3, [r7, #60]	@ 0x3c
  MODIFY_REG(huart->Instance->CR1, USART_CR1_FIELDS, tmpreg);
 8001e78:	6a7b      	ldr	r3, [r7, #36]	@ 0x24
 8001e7a:	681b      	ldr	r3, [r3, #0]
 8001e7c:	681b      	ldr	r3, [r3, #0]
 8001e7e:	4aaf      	ldr	r2, [pc, #700]	@ (800213c <UART_SetConfig+0x2f0>)
 8001e80:	4013      	ands	r3, r2
 8001e82:	0019      	movs	r1, r3
 8001e84:	6a7b      	ldr	r3, [r7, #36]	@ 0x24
 8001e86:	681a      	ldr	r2, [r3, #0]
 8001e88:	6bfb      	ldr	r3, [r7, #60]	@ 0x3c
 8001e8a:	430b      	orrs	r3, r1
 8001e8c:	6013      	str	r3, [r2, #0]

  /*-------------------------- USART CR2 Configuration -----------------------*/
  /* Configure the UART Stop Bits: Set STOP[13:12] bits according
  * to huart->Init.StopBits value */
  MODIFY_REG(huart->Instance->CR2, USART_CR2_STOP, huart->Init.StopBits);
 8001e8e:	6a7b      	ldr	r3, [r7, #36]	@ 0x24
 8001e90:	681b      	ldr	r3, [r3, #0]
 8001e92:	685b      	ldr	r3, [r3, #4]
 8001e94:	4aaa      	ldr	r2, [pc, #680]	@ (8002140 <UART_SetConfig+0x2f4>)
 8001e96:	4013      	ands	r3, r2
 8001e98:	0018      	movs	r0, r3
 8001e9a:	6a7b      	ldr	r3, [r7, #36]	@ 0x24
 8001e9c:	68d9      	ldr	r1, [r3, #12]
 8001e9e:	6a7b      	ldr	r3, [r7, #36]	@ 0x24
 8001ea0:	681a      	ldr	r2, [r3, #0]
 8001ea2:	0003      	movs	r3, r0
 8001ea4:	430b      	orrs	r3, r1
 8001ea6:	6053      	str	r3, [r2, #4]
  /* Configure
  * - UART HardWare Flow Control: set CTSE and RTSE bits according
  *   to huart->Init.HwFlowCtl value
  * - one-bit sampling method versus three samples' majority rule according
  *   to huart->Init.OneBitSampling (not applicable to LPUART) */
  tmpreg = (uint32_t)huart->Init.HwFlowCtl;
 8001ea8:	6a7b      	ldr	r3, [r7, #36]	@ 0x24
 8001eaa:	699b      	ldr	r3, [r3, #24]
 8001eac:	63fb      	str	r3, [r7, #60]	@ 0x3c

  if (!(UART_INSTANCE_LOWPOWER(huart)))
 8001eae:	6a7b      	ldr	r3, [r7, #36]	@ 0x24
 8001eb0:	681b      	ldr	r3, [r3, #0]
 8001eb2:	4aa4      	ldr	r2, [pc, #656]	@ (8002144 <UART_SetConfig+0x2f8>)
 8001eb4:	4293      	cmp	r3, r2
 8001eb6:	d004      	beq.n	8001ec2 <UART_SetConfig+0x76>
  {
    tmpreg |= huart->Init.OneBitSampling;
 8001eb8:	6a7b      	ldr	r3, [r7, #36]	@ 0x24
 8001eba:	6a1b      	ldr	r3, [r3, #32]
 8001ebc:	6bfa      	ldr	r2, [r7, #60]	@ 0x3c
 8001ebe:	4313      	orrs	r3, r2
 8001ec0:	63fb      	str	r3, [r7, #60]	@ 0x3c
  }
  MODIFY_REG(huart->Instance->CR3, USART_CR3_FIELDS, tmpreg);
 8001ec2:	6a7b      	ldr	r3, [r7, #36]	@ 0x24
 8001ec4:	681b      	ldr	r3, [r3, #0]
 8001ec6:	689b      	ldr	r3, [r3, #8]
 8001ec8:	4a9f      	ldr	r2, [pc, #636]	@ (8002148 <UART_SetConfig+0x2fc>)
 8001eca:	4013      	ands	r3, r2
 8001ecc:	0019      	movs	r1, r3
 8001ece:	6a7b      	ldr	r3, [r7, #36]	@ 0x24
 8001ed0:	681a      	ldr	r2, [r3, #0]
 8001ed2:	6bfb      	ldr	r3, [r7, #60]	@ 0x3c
 8001ed4:	430b      	orrs	r3, r1
 8001ed6:	6093      	str	r3, [r2, #8]

  /*-------------------------- USART PRESC Configuration -----------------------*/
  /* Configure
  * - UART Clock Prescaler : set PRESCALER according to huart->Init.ClockPrescaler value */
  MODIFY_REG(huart->Instance->PRESC, USART_PRESC_PRESCALER, huart->Init.ClockPrescaler);
 8001ed8:	6a7b      	ldr	r3, [r7, #36]	@ 0x24
 8001eda:	681b      	ldr	r3, [r3, #0]
 8001edc:	6adb      	ldr	r3, [r3, #44]	@ 0x2c
 8001ede:	220f      	movs	r2, #15
 8001ee0:	4393      	bics	r3, r2
 8001ee2:	0018      	movs	r0, r3
 8001ee4:	6a7b      	ldr	r3, [r7, #36]	@ 0x24
 8001ee6:	6a59      	ldr	r1, [r3, #36]	@ 0x24
 8001ee8:	6a7b      	ldr	r3, [r7, #36]	@ 0x24
 8001eea:	681a      	ldr	r2, [r3, #0]
 8001eec:	0003      	movs	r3, r0
 8001eee:	430b      	orrs	r3, r1
 8001ef0:	62d3      	str	r3, [r2, #44]	@ 0x2c

  /*-------------------------- USART BRR Configuration -----------------------*/
  UART_GETCLOCKSOURCE(huart, clocksource);
 8001ef2:	6a7b      	ldr	r3, [r7, #36]	@ 0x24
 8001ef4:	681b      	ldr	r3, [r3, #0]
 8001ef6:	4a95      	ldr	r2, [pc, #596]	@ (800214c <UART_SetConfig+0x300>)
 8001ef8:	4293      	cmp	r3, r2
 8001efa:	d131      	bne.n	8001f60 <UART_SetConfig+0x114>
 8001efc:	4b94      	ldr	r3, [pc, #592]	@ (8002150 <UART_SetConfig+0x304>)
 8001efe:	6d5b      	ldr	r3, [r3, #84]	@ 0x54
 8001f00:	2203      	movs	r2, #3
 8001f02:	4013      	ands	r3, r2
 8001f04:	2b03      	cmp	r3, #3
 8001f06:	d01d      	beq.n	8001f44 <UART_SetConfig+0xf8>
 8001f08:	d823      	bhi.n	8001f52 <UART_SetConfig+0x106>
 8001f0a:	2b02      	cmp	r3, #2
 8001f0c:	d00c      	beq.n	8001f28 <UART_SetConfig+0xdc>
 8001f0e:	d820      	bhi.n	8001f52 <UART_SetConfig+0x106>
 8001f10:	2b00      	cmp	r3, #0
 8001f12:	d002      	beq.n	8001f1a <UART_SetConfig+0xce>
 8001f14:	2b01      	cmp	r3, #1
 8001f16:	d00e      	beq.n	8001f36 <UART_SetConfig+0xea>
 8001f18:	e01b      	b.n	8001f52 <UART_SetConfig+0x106>
 8001f1a:	231b      	movs	r3, #27
 8001f1c:	2220      	movs	r2, #32
 8001f1e:	189b      	adds	r3, r3, r2
 8001f20:	19db      	adds	r3, r3, r7
 8001f22:	2200      	movs	r2, #0
 8001f24:	701a      	strb	r2, [r3, #0]
 8001f26:	e0b4      	b.n	8002092 <UART_SetConfig+0x246>
 8001f28:	231b      	movs	r3, #27
 8001f2a:	2220      	movs	r2, #32
 8001f2c:	189b      	adds	r3, r3, r2
 8001f2e:	19db      	adds	r3, r3, r7
 8001f30:	2202      	movs	r2, #2
 8001f32:	701a      	strb	r2, [r3, #0]
 8001f34:	e0ad      	b.n	8002092 <UART_SetConfig+0x246>
 8001f36:	231b      	movs	r3, #27
 8001f38:	2220      	movs	r2, #32
 8001f3a:	189b      	adds	r3, r3, r2
 8001f3c:	19db      	adds	r3, r3, r7
 8001f3e:	2204      	movs	r2, #4
 8001f40:	701a      	strb	r2, [r3, #0]
 8001f42:	e0a6      	b.n	8002092 <UART_SetConfig+0x246>
 8001f44:	231b      	movs	r3, #27
 8001f46:	2220      	movs	r2, #32
 8001f48:	189b      	adds	r3, r3, r2
 8001f4a:	19db      	adds	r3, r3, r7
 8001f4c:	2208      	movs	r2, #8
 8001f4e:	701a      	strb	r2, [r3, #0]
 8001f50:	e09f      	b.n	8002092 <UART_SetConfig+0x246>
 8001f52:	231b      	movs	r3, #27
 8001f54:	2220      	movs	r2, #32
 8001f56:	189b      	adds	r3, r3, r2
 8001f58:	19db      	adds	r3, r3, r7
 8001f5a:	2210      	movs	r2, #16
 8001f5c:	701a      	strb	r2, [r3, #0]
 8001f5e:	e098      	b.n	8002092 <UART_SetConfig+0x246>
 8001f60:	6a7b      	ldr	r3, [r7, #36]	@ 0x24
 8001f62:	681b      	ldr	r3, [r3, #0]
 8001f64:	4a7b      	ldr	r2, [pc, #492]	@ (8002154 <UART_SetConfig+0x308>)
 8001f66:	4293      	cmp	r3, r2
 8001f68:	d131      	bne.n	8001fce <UART_SetConfig+0x182>
 8001f6a:	4b79      	ldr	r3, [pc, #484]	@ (8002150 <UART_SetConfig+0x304>)
 8001f6c:	6d5b      	ldr	r3, [r3, #84]	@ 0x54
 8001f6e:	220c      	movs	r2, #12
 8001f70:	4013      	ands	r3, r2
 8001f72:	2b0c      	cmp	r3, #12
 8001f74:	d01d      	beq.n	8001fb2 <UART_SetConfig+0x166>
 8001f76:	d823      	bhi.n	8001fc0 <UART_SetConfig+0x174>
 8001f78:	2b08      	cmp	r3, #8
 8001f7a:	d00c      	beq.n	8001f96 <UART_SetConfig+0x14a>
 8001f7c:	d820      	bhi.n	8001fc0 <UART_SetConfig+0x174>
 8001f7e:	2b00      	cmp	r3, #0
 8001f80:	d002      	beq.n	8001f88 <UART_SetConfig+0x13c>
 8001f82:	2b04      	cmp	r3, #4
 8001f84:	d00e      	beq.n	8001fa4 <UART_SetConfig+0x158>
 8001f86:	e01b      	b.n	8001fc0 <UART_SetConfig+0x174>
 8001f88:	231b      	movs	r3, #27
 8001f8a:	2220      	movs	r2, #32
 8001f8c:	189b      	adds	r3, r3, r2
 8001f8e:	19db      	adds	r3, r3, r7
 8001f90:	2200      	movs	r2, #0
 8001f92:	701a      	strb	r2, [r3, #0]
 8001f94:	e07d      	b.n	8002092 <UART_SetConfig+0x246>
 8001f96:	231b      	movs	r3, #27
 8001f98:	2220      	movs	r2, #32
 8001f9a:	189b      	adds	r3, r3, r2
 8001f9c:	19db      	adds	r3, r3, r7
 8001f9e:	2202      	movs	r2, #2
 8001fa0:	701a      	strb	r2, [r3, #0]
 8001fa2:	e076      	b.n	8002092 <UART_SetConfig+0x246>
 8001fa4:	231b      	movs	r3, #27
 8001fa6:	2220      	movs	r2, #32
 8001fa8:	189b      	adds	r3, r3, r2
 8001faa:	19db      	adds	r3, r3, r7
 8001fac:	2204      	movs	r2, #4
 8001fae:	701a      	strb	r2, [r3, #0]
 8001fb0:	e06f      	b.n	8002092 <UART_SetConfig+0x246>
 8001fb2:	231b      	movs	r3, #27
 8001fb4:	2220      	movs	r2, #32
 8001fb6:	189b      	adds	r3, r3, r2
 8001fb8:	19db      	adds	r3, r3, r7
 8001fba:	2208      	movs	r2, #8
 8001fbc:	701a      	strb	r2, [r3, #0]
 8001fbe:	e068      	b.n	8002092 <UART_SetConfig+0x246>
 8001fc0:	231b      	movs	r3, #27
 8001fc2:	2220      	movs	r2, #32
 8001fc4:	189b      	adds	r3, r3, r2
 8001fc6:	19db      	adds	r3, r3, r7
 8001fc8:	2210      	movs	r2, #16
 8001fca:	701a      	strb	r2, [r3, #0]
 8001fcc:	e061      	b.n	8002092 <UART_SetConfig+0x246>
 8001fce:	6a7b      	ldr	r3, [r7, #36]	@ 0x24
 8001fd0:	681b      	ldr	r3, [r3, #0]
 8001fd2:	4a61      	ldr	r2, [pc, #388]	@ (8002158 <UART_SetConfig+0x30c>)
 8001fd4:	4293      	cmp	r3, r2
 8001fd6:	d106      	bne.n	8001fe6 <UART_SetConfig+0x19a>
 8001fd8:	231b      	movs	r3, #27
 8001fda:	2220      	movs	r2, #32
 8001fdc:	189b      	adds	r3, r3, r2
 8001fde:	19db      	adds	r3, r3, r7
 8001fe0:	2200      	movs	r2, #0
 8001fe2:	701a      	strb	r2, [r3, #0]
 8001fe4:	e055      	b.n	8002092 <UART_SetConfig+0x246>
 8001fe6:	6a7b      	ldr	r3, [r7, #36]	@ 0x24
 8001fe8:	681b      	ldr	r3, [r3, #0]
 8001fea:	4a5c      	ldr	r2, [pc, #368]	@ (800215c <UART_SetConfig+0x310>)
 8001fec:	4293      	cmp	r3, r2
 8001fee:	d106      	bne.n	8001ffe <UART_SetConfig+0x1b2>
 8001ff0:	231b      	movs	r3, #27
 8001ff2:	2220      	movs	r2, #32
 8001ff4:	189b      	adds	r3, r3, r2
 8001ff6:	19db      	adds	r3, r3, r7
 8001ff8:	2200      	movs	r2, #0
 8001ffa:	701a      	strb	r2, [r3, #0]
 8001ffc:	e049      	b.n	8002092 <UART_SetConfig+0x246>
 8001ffe:	6a7b      	ldr	r3, [r7, #36]	@ 0x24
 8002000:	681b      	ldr	r3, [r3, #0]
 8002002:	4a50      	ldr	r2, [pc, #320]	@ (8002144 <UART_SetConfig+0x2f8>)
 8002004:	4293      	cmp	r3, r2
 8002006:	d13e      	bne.n	8002086 <UART_SetConfig+0x23a>
 8002008:	4b51      	ldr	r3, [pc, #324]	@ (8002150 <UART_SetConfig+0x304>)
 800200a:	6d5a      	ldr	r2, [r3, #84]	@ 0x54
 800200c:	23c0      	movs	r3, #192	@ 0xc0
 800200e:	011b      	lsls	r3, r3, #4
 8002010:	4013      	ands	r3, r2
 8002012:	22c0      	movs	r2, #192	@ 0xc0
 8002014:	0112      	lsls	r2, r2, #4
 8002016:	4293      	cmp	r3, r2
 8002018:	d027      	beq.n	800206a <UART_SetConfig+0x21e>
 800201a:	22c0      	movs	r2, #192	@ 0xc0
 800201c:	0112      	lsls	r2, r2, #4
 800201e:	4293      	cmp	r3, r2
 8002020:	d82a      	bhi.n	8002078 <UART_SetConfig+0x22c>
 8002022:	2280      	movs	r2, #128	@ 0x80
 8002024:	0112      	lsls	r2, r2, #4
 8002026:	4293      	cmp	r3, r2
 8002028:	d011      	beq.n	800204e <UART_SetConfig+0x202>
 800202a:	2280      	movs	r2, #128	@ 0x80
 800202c:	0112      	lsls	r2, r2, #4
 800202e:	4293      	cmp	r3, r2
 8002030:	d822      	bhi.n	8002078 <UART_SetConfig+0x22c>
 8002032:	2b00      	cmp	r3, #0
 8002034:	d004      	beq.n	8002040 <UART_SetConfig+0x1f4>
 8002036:	2280      	movs	r2, #128	@ 0x80
 8002038:	00d2      	lsls	r2, r2, #3
 800203a:	4293      	cmp	r3, r2
 800203c:	d00e      	beq.n	800205c <UART_SetConfig+0x210>
 800203e:	e01b      	b.n	8002078 <UART_SetConfig+0x22c>
 8002040:	231b      	movs	r3, #27
 8002042:	2220      	movs	r2, #32
 8002044:	189b      	adds	r3, r3, r2
 8002046:	19db      	adds	r3, r3, r7
 8002048:	2200      	movs	r2, #0
 800204a:	701a      	strb	r2, [r3, #0]
 800204c:	e021      	b.n	8002092 <UART_SetConfig+0x246>
 800204e:	231b      	movs	r3, #27
 8002050:	2220      	movs	r2, #32
 8002052:	189b      	adds	r3, r3, r2
 8002054:	19db      	adds	r3, r3, r7
 8002056:	2202      	movs	r2, #2
 8002058:	701a      	strb	r2, [r3, #0]
 800205a:	e01a      	b.n	8002092 <UART_SetConfig+0x246>
 800205c:	231b      	movs	r3, #27
 800205e:	2220      	movs	r2, #32
 8002060:	189b      	adds	r3, r3, r2
 8002062:	19db      	adds	r3, r3, r7
 8002064:	2204      	movs	r2, #4
 8002066:	701a      	strb	r2, [r3, #0]
 8002068:	e013      	b.n	8002092 <UART_SetConfig+0x246>
 800206a:	231b      	movs	r3, #27
 800206c:	2220      	movs	r2, #32
 800206e:	189b      	adds	r3, r3, r2
 8002070:	19db      	adds	r3, r3, r7
 8002072:	2208      	movs	r2, #8
 8002074:	701a      	strb	r2, [r3, #0]
 8002076:	e00c      	b.n	8002092 <UART_SetConfig+0x246>
 8002078:	231b      	movs	r3, #27
 800207a:	2220      	movs	r2, #32
 800207c:	189b      	adds	r3, r3, r2
 800207e:	19db      	adds	r3, r3, r7
 8002080:	2210      	movs	r2, #16
 8002082:	701a      	strb	r2, [r3, #0]
 8002084:	e005      	b.n	8002092 <UART_SetConfig+0x246>
 8002086:	231b      	movs	r3, #27
 8002088:	2220      	movs	r2, #32
 800208a:	189b      	adds	r3, r3, r2
 800208c:	19db      	adds	r3, r3, r7
 800208e:	2210      	movs	r2, #16
 8002090:	701a      	strb	r2, [r3, #0]

  /* Check LPUART instance */
  if (UART_INSTANCE_LOWPOWER(huart))
 8002092:	6a7b      	ldr	r3, [r7, #36]	@ 0x24
 8002094:	681b      	ldr	r3, [r3, #0]
 8002096:	4a2b      	ldr	r2, [pc, #172]	@ (8002144 <UART_SetConfig+0x2f8>)
 8002098:	4293      	cmp	r3, r2
 800209a:	d000      	beq.n	800209e <UART_SetConfig+0x252>
 800209c:	e0a9      	b.n	80021f2 <UART_SetConfig+0x3a6>
  {
    /* Retrieve frequency clock */
    switch (clocksource)
 800209e:	231b      	movs	r3, #27
 80020a0:	2220      	movs	r2, #32
 80020a2:	189b      	adds	r3, r3, r2
 80020a4:	19db      	adds	r3, r3, r7
 80020a6:	781b      	ldrb	r3, [r3, #0]
 80020a8:	2b08      	cmp	r3, #8
 80020aa:	d015      	beq.n	80020d8 <UART_SetConfig+0x28c>
 80020ac:	dc18      	bgt.n	80020e0 <UART_SetConfig+0x294>
 80020ae:	2b04      	cmp	r3, #4
 80020b0:	d00d      	beq.n	80020ce <UART_SetConfig+0x282>
 80020b2:	dc15      	bgt.n	80020e0 <UART_SetConfig+0x294>
 80020b4:	2b00      	cmp	r3, #0
 80020b6:	d002      	beq.n	80020be <UART_SetConfig+0x272>
 80020b8:	2b02      	cmp	r3, #2
 80020ba:	d005      	beq.n	80020c8 <UART_SetConfig+0x27c>
 80020bc:	e010      	b.n	80020e0 <UART_SetConfig+0x294>
    {
      case UART_CLOCKSOURCE_PCLK1:
        pclk = HAL_RCC_GetPCLK1Freq();
 80020be:	f7ff fca1 	bl	8001a04 <HAL_RCC_GetPCLK1Freq>
 80020c2:	0003      	movs	r3, r0
 80020c4:	637b      	str	r3, [r7, #52]	@ 0x34
        break;
 80020c6:	e014      	b.n	80020f2 <UART_SetConfig+0x2a6>
      case UART_CLOCKSOURCE_HSI:
        pclk = (uint32_t) HSI_VALUE;
 80020c8:	4b25      	ldr	r3, [pc, #148]	@ (8002160 <UART_SetConfig+0x314>)
 80020ca:	637b      	str	r3, [r7, #52]	@ 0x34
        break;
 80020cc:	e011      	b.n	80020f2 <UART_SetConfig+0x2a6>
      case UART_CLOCKSOURCE_SYSCLK:
        pclk = HAL_RCC_GetSysClockFreq();
 80020ce:	f7ff fc0d 	bl	80018ec <HAL_RCC_GetSysClockFreq>
 80020d2:	0003      	movs	r3, r0
 80020d4:	637b      	str	r3, [r7, #52]	@ 0x34
        break;
 80020d6:	e00c      	b.n	80020f2 <UART_SetConfig+0x2a6>
      case UART_CLOCKSOURCE_LSE:
        pclk = (uint32_t) LSE_VALUE;
 80020d8:	2380      	movs	r3, #128	@ 0x80
 80020da:	021b      	lsls	r3, r3, #8
 80020dc:	637b      	str	r3, [r7, #52]	@ 0x34
        break;
 80020de:	e008      	b.n	80020f2 <UART_SetConfig+0x2a6>
      default:
        pclk = 0U;
 80020e0:	2300      	movs	r3, #0
 80020e2:	637b      	str	r3, [r7, #52]	@ 0x34
        ret = HAL_ERROR;
 80020e4:	231a      	movs	r3, #26
 80020e6:	2220      	movs	r2, #32
 80020e8:	189b      	adds	r3, r3, r2
 80020ea:	19db      	adds	r3, r3, r7
 80020ec:	2201      	movs	r2, #1
 80020ee:	701a      	strb	r2, [r3, #0]
        break;
 80020f0:	46c0      	nop			@ (mov r8, r8)
    }

    /* If proper clock source reported */
    if (pclk != 0U)
 80020f2:	6b7b      	ldr	r3, [r7, #52]	@ 0x34
 80020f4:	2b00      	cmp	r3, #0
 80020f6:	d100      	bne.n	80020fa <UART_SetConfig+0x2ae>
 80020f8:	e14b      	b.n	8002392 <UART_SetConfig+0x546>
    {
      /* Compute clock after Prescaler */
      lpuart_ker_ck_pres = (pclk / UARTPrescTable[huart->Init.ClockPrescaler]);
 80020fa:	6a7b      	ldr	r3, [r7, #36]	@ 0x24
 80020fc:	6a5a      	ldr	r2, [r3, #36]	@ 0x24
 80020fe:	4b19      	ldr	r3, [pc, #100]	@ (8002164 <UART_SetConfig+0x318>)
 8002100:	0052      	lsls	r2, r2, #1
 8002102:	5ad3      	ldrh	r3, [r2, r3]
 8002104:	0019      	movs	r1, r3
 8002106:	6b78      	ldr	r0, [r7, #52]	@ 0x34
 8002108:	f7fd fffc 	bl	8000104 <__udivsi3>
 800210c:	0003      	movs	r3, r0
 800210e:	62bb      	str	r3, [r7, #40]	@ 0x28

      /* Ensure that Frequency clock is in the range [3 * baudrate, 4096 * baudrate] */
      if ((lpuart_ker_ck_pres < (3U * huart->Init.BaudRate)) ||
 8002110:	6a7b      	ldr	r3, [r7, #36]	@ 0x24
 8002112:	685a      	ldr	r2, [r3, #4]
 8002114:	0013      	movs	r3, r2
 8002116:	005b      	lsls	r3, r3, #1
 8002118:	189b      	adds	r3, r3, r2
 800211a:	6aba      	ldr	r2, [r7, #40]	@ 0x28
 800211c:	429a      	cmp	r2, r3
 800211e:	d305      	bcc.n	800212c <UART_SetConfig+0x2e0>
          (lpuart_ker_ck_pres > (4096U * huart->Init.BaudRate)))
 8002120:	6a7b      	ldr	r3, [r7, #36]	@ 0x24
 8002122:	685b      	ldr	r3, [r3, #4]
 8002124:	031b      	lsls	r3, r3, #12
      if ((lpuart_ker_ck_pres < (3U * huart->Init.BaudRate)) ||
 8002126:	6aba      	ldr	r2, [r7, #40]	@ 0x28
 8002128:	429a      	cmp	r2, r3
 800212a:	d91d      	bls.n	8002168 <UART_SetConfig+0x31c>
      {
        ret = HAL_ERROR;
 800212c:	231a      	movs	r3, #26
 800212e:	2220      	movs	r2, #32
 8002130:	189b      	adds	r3, r3, r2
 8002132:	19db      	adds	r3, r3, r7
 8002134:	2201      	movs	r2, #1
 8002136:	701a      	strb	r2, [r3, #0]
 8002138:	e12b      	b.n	8002392 <UART_SetConfig+0x546>
 800213a:	46c0      	nop			@ (mov r8, r8)
 800213c:	cfff69f3 	.word	0xcfff69f3
 8002140:	ffffcfff 	.word	0xffffcfff
 8002144:	40008000 	.word	0x40008000
 8002148:	11fff4ff 	.word	0x11fff4ff
 800214c:	40013800 	.word	0x40013800
 8002150:	40021000 	.word	0x40021000
 8002154:	40004400 	.word	0x40004400
 8002158:	40004800 	.word	0x40004800
 800215c:	40004c00 	.word	0x40004c00
 8002160:	00f42400 	.word	0x00f42400
 8002164:	08002b34 	.word	0x08002b34
      }
      else
      {
        /* Check computed UsartDiv value is in allocated range
           (it is forbidden to write values lower than 0x300 in the LPUART_BRR register) */
        usartdiv = (uint32_t)(UART_DIV_LPUART(pclk, huart->Init.BaudRate, huart->Init.ClockPrescaler));
 8002168:	6b7b      	ldr	r3, [r7, #52]	@ 0x34
 800216a:	61bb      	str	r3, [r7, #24]
 800216c:	2300      	movs	r3, #0
 800216e:	61fb      	str	r3, [r7, #28]
 8002170:	6a7b      	ldr	r3, [r7, #36]	@ 0x24
 8002172:	6a5a      	ldr	r2, [r3, #36]	@ 0x24
 8002174:	4b92      	ldr	r3, [pc, #584]	@ (80023c0 <UART_SetConfig+0x574>)
 8002176:	0052      	lsls	r2, r2, #1
 8002178:	5ad3      	ldrh	r3, [r2, r3]
 800217a:	613b      	str	r3, [r7, #16]
 800217c:	2300      	movs	r3, #0
 800217e:	617b      	str	r3, [r7, #20]
 8002180:	693a      	ldr	r2, [r7, #16]
 8002182:	697b      	ldr	r3, [r7, #20]
 8002184:	69b8      	ldr	r0, [r7, #24]
 8002186:	69f9      	ldr	r1, [r7, #28]
 8002188:	f7fe f932 	bl	80003f0 <__aeabi_uldivmod>
 800218c:	0002      	movs	r2, r0
 800218e:	000b      	movs	r3, r1
 8002190:	0e11      	lsrs	r1, r2, #24
 8002192:	021d      	lsls	r5, r3, #8
 8002194:	430d      	orrs	r5, r1
 8002196:	0214      	lsls	r4, r2, #8
 8002198:	6a7b      	ldr	r3, [r7, #36]	@ 0x24
 800219a:	685b      	ldr	r3, [r3, #4]
 800219c:	085b      	lsrs	r3, r3, #1
 800219e:	60bb      	str	r3, [r7, #8]
 80021a0:	2300      	movs	r3, #0
 80021a2:	60fb      	str	r3, [r7, #12]
 80021a4:	68b8      	ldr	r0, [r7, #8]
 80021a6:	68f9      	ldr	r1, [r7, #12]
 80021a8:	1900      	adds	r0, r0, r4
 80021aa:	4169      	adcs	r1, r5
 80021ac:	6a7b      	ldr	r3, [r7, #36]	@ 0x24
 80021ae:	685b      	ldr	r3, [r3, #4]
 80021b0:	603b      	str	r3, [r7, #0]
 80021b2:	2300      	movs	r3, #0
 80021b4:	607b      	str	r3, [r7, #4]
 80021b6:	683a      	ldr	r2, [r7, #0]
 80021b8:	687b      	ldr	r3, [r7, #4]
 80021ba:	f7fe f919 	bl	80003f0 <__aeabi_uldivmod>
 80021be:	0002      	movs	r2, r0
 80021c0:	000b      	movs	r3, r1
 80021c2:	0013      	movs	r3, r2
 80021c4:	633b      	str	r3, [r7, #48]	@ 0x30
        if ((usartdiv >= LPUART_BRR_MIN) && (usartdiv <= LPUART_BRR_MAX))
 80021c6:	6b3a      	ldr	r2, [r7, #48]	@ 0x30
 80021c8:	23c0      	movs	r3, #192	@ 0xc0
 80021ca:	009b      	lsls	r3, r3, #2
 80021cc:	429a      	cmp	r2, r3
 80021ce:	d309      	bcc.n	80021e4 <UART_SetConfig+0x398>
 80021d0:	6b3a      	ldr	r2, [r7, #48]	@ 0x30
 80021d2:	2380      	movs	r3, #128	@ 0x80
 80021d4:	035b      	lsls	r3, r3, #13
 80021d6:	429a      	cmp	r2, r3
 80021d8:	d204      	bcs.n	80021e4 <UART_SetConfig+0x398>
        {
          huart->Instance->BRR = usartdiv;
 80021da:	6a7b      	ldr	r3, [r7, #36]	@ 0x24
 80021dc:	681b      	ldr	r3, [r3, #0]
 80021de:	6b3a      	ldr	r2, [r7, #48]	@ 0x30
 80021e0:	60da      	str	r2, [r3, #12]
 80021e2:	e0d6      	b.n	8002392 <UART_SetConfig+0x546>
        }
        else
        {
          ret = HAL_ERROR;
 80021e4:	231a      	movs	r3, #26
 80021e6:	2220      	movs	r2, #32
 80021e8:	189b      	adds	r3, r3, r2
 80021ea:	19db      	adds	r3, r3, r7
 80021ec:	2201      	movs	r2, #1
 80021ee:	701a      	strb	r2, [r3, #0]
 80021f0:	e0cf      	b.n	8002392 <UART_SetConfig+0x546>
      } /* if ( (lpuart_ker_ck_pres < (3 * huart->Init.BaudRate) ) ||
                (lpuart_ker_ck_pres > (4096 * huart->Init.BaudRate) )) */
    } /* if (pclk != 0) */
  }
  /* Check UART Over Sampling to set Baud Rate Register */
  else if (huart->Init.OverSampling == UART_OVERSAMPLING_8)
 80021f2:	6a7b      	ldr	r3, [r7, #36]	@ 0x24
 80021f4:	69da      	ldr	r2, [r3, #28]
 80021f6:	2380      	movs	r3, #128	@ 0x80
 80021f8:	021b      	lsls	r3, r3, #8
 80021fa:	429a      	cmp	r2, r3
 80021fc:	d000      	beq.n	8002200 <UART_SetConfig+0x3b4>
 80021fe:	e070      	b.n	80022e2 <UART_SetConfig+0x496>
  {
    switch (clocksource)
 8002200:	231b      	movs	r3, #27
 8002202:	2220      	movs	r2, #32
 8002204:	189b      	adds	r3, r3, r2
 8002206:	19db      	adds	r3, r3, r7
 8002208:	781b      	ldrb	r3, [r3, #0]
 800220a:	2b08      	cmp	r3, #8
 800220c:	d015      	beq.n	800223a <UART_SetConfig+0x3ee>
 800220e:	dc18      	bgt.n	8002242 <UART_SetConfig+0x3f6>
 8002210:	2b04      	cmp	r3, #4
 8002212:	d00d      	beq.n	8002230 <UART_SetConfig+0x3e4>
 8002214:	dc15      	bgt.n	8002242 <UART_SetConfig+0x3f6>
 8002216:	2b00      	cmp	r3, #0
 8002218:	d002      	beq.n	8002220 <UART_SetConfig+0x3d4>
 800221a:	2b02      	cmp	r3, #2
 800221c:	d005      	beq.n	800222a <UART_SetConfig+0x3de>
 800221e:	e010      	b.n	8002242 <UART_SetConfig+0x3f6>
    {
      case UART_CLOCKSOURCE_PCLK1:
        pclk = HAL_RCC_GetPCLK1Freq();
 8002220:	f7ff fbf0 	bl	8001a04 <HAL_RCC_GetPCLK1Freq>
 8002224:	0003      	movs	r3, r0
 8002226:	637b      	str	r3, [r7, #52]	@ 0x34
        break;
 8002228:	e014      	b.n	8002254 <UART_SetConfig+0x408>
      case UART_CLOCKSOURCE_HSI:
        pclk = (uint32_t) HSI_VALUE;
 800222a:	4b66      	ldr	r3, [pc, #408]	@ (80023c4 <UART_SetConfig+0x578>)
 800222c:	637b      	str	r3, [r7, #52]	@ 0x34
        break;
 800222e:	e011      	b.n	8002254 <UART_SetConfig+0x408>
      case UART_CLOCKSOURCE_SYSCLK:
        pclk = HAL_RCC_GetSysClockFreq();
 8002230:	f7ff fb5c 	bl	80018ec <HAL_RCC_GetSysClockFreq>
 8002234:	0003      	movs	r3, r0
 8002236:	637b      	str	r3, [r7, #52]	@ 0x34
        break;
 8002238:	e00c      	b.n	8002254 <UART_SetConfig+0x408>
      case UART_CLOCKSOURCE_LSE:
        pclk = (uint32_t) LSE_VALUE;
 800223a:	2380      	movs	r3, #128	@ 0x80
 800223c:	021b      	lsls	r3, r3, #8
 800223e:	637b      	str	r3, [r7, #52]	@ 0x34
        break;
 8002240:	e008      	b.n	8002254 <UART_SetConfig+0x408>
      default:
        pclk = 0U;
 8002242:	2300      	movs	r3, #0
 8002244:	637b      	str	r3, [r7, #52]	@ 0x34
        ret = HAL_ERROR;
 8002246:	231a      	movs	r3, #26
 8002248:	2220      	movs	r2, #32
 800224a:	189b      	adds	r3, r3, r2
 800224c:	19db      	adds	r3, r3, r7
 800224e:	2201      	movs	r2, #1
 8002250:	701a      	strb	r2, [r3, #0]
        break;
 8002252:	46c0      	nop			@ (mov r8, r8)
    }

    /* USARTDIV must be greater than or equal to 0d16 */
    if (pclk != 0U)
 8002254:	6b7b      	ldr	r3, [r7, #52]	@ 0x34
 8002256:	2b00      	cmp	r3, #0
 8002258:	d100      	bne.n	800225c <UART_SetConfig+0x410>
 800225a:	e09a      	b.n	8002392 <UART_SetConfig+0x546>
    {
      usartdiv = (uint32_t)(UART_DIV_SAMPLING8(pclk, huart->Init.BaudRate, huart->Init.ClockPrescaler));
 800225c:	6a7b      	ldr	r3, [r7, #36]	@ 0x24
 800225e:	6a5a      	ldr	r2, [r3, #36]	@ 0x24
 8002260:	4b57      	ldr	r3, [pc, #348]	@ (80023c0 <UART_SetConfig+0x574>)
 8002262:	0052      	lsls	r2, r2, #1
 8002264:	5ad3      	ldrh	r3, [r2, r3]
 8002266:	0019      	movs	r1, r3
 8002268:	6b78      	ldr	r0, [r7, #52]	@ 0x34
 800226a:	f7fd ff4b 	bl	8000104 <__udivsi3>
 800226e:	0003      	movs	r3, r0
 8002270:	005a      	lsls	r2, r3, #1
 8002272:	6a7b      	ldr	r3, [r7, #36]	@ 0x24
 8002274:	685b      	ldr	r3, [r3, #4]
 8002276:	085b      	lsrs	r3, r3, #1
 8002278:	18d2      	adds	r2, r2, r3
 800227a:	6a7b      	ldr	r3, [r7, #36]	@ 0x24
 800227c:	685b      	ldr	r3, [r3, #4]
 800227e:	0019      	movs	r1, r3
 8002280:	0010      	movs	r0, r2
 8002282:	f7fd ff3f 	bl	8000104 <__udivsi3>
 8002286:	0003      	movs	r3, r0
 8002288:	633b      	str	r3, [r7, #48]	@ 0x30
      if ((usartdiv >= UART_BRR_MIN) && (usartdiv <= UART_BRR_MAX))
 800228a:	6b3b      	ldr	r3, [r7, #48]	@ 0x30
 800228c:	2b0f      	cmp	r3, #15
 800228e:	d921      	bls.n	80022d4 <UART_SetConfig+0x488>
 8002290:	6b3a      	ldr	r2, [r7, #48]	@ 0x30
 8002292:	2380      	movs	r3, #128	@ 0x80
 8002294:	025b      	lsls	r3, r3, #9
 8002296:	429a      	cmp	r2, r3
 8002298:	d21c      	bcs.n	80022d4 <UART_SetConfig+0x488>
      {
        brrtemp = (uint16_t)(usartdiv & 0xFFF0U);
 800229a:	6b3b      	ldr	r3, [r7, #48]	@ 0x30
 800229c:	b29a      	uxth	r2, r3
 800229e:	200e      	movs	r0, #14
 80022a0:	2420      	movs	r4, #32
 80022a2:	1903      	adds	r3, r0, r4
 80022a4:	19db      	adds	r3, r3, r7
 80022a6:	210f      	movs	r1, #15
 80022a8:	438a      	bics	r2, r1
 80022aa:	801a      	strh	r2, [r3, #0]
        brrtemp |= (uint16_t)((usartdiv & (uint16_t)0x000FU) >> 1U);
 80022ac:	6b3b      	ldr	r3, [r7, #48]	@ 0x30
 80022ae:	085b      	lsrs	r3, r3, #1
 80022b0:	b29b      	uxth	r3, r3
 80022b2:	2207      	movs	r2, #7
 80022b4:	4013      	ands	r3, r2
 80022b6:	b299      	uxth	r1, r3
 80022b8:	1903      	adds	r3, r0, r4
 80022ba:	19db      	adds	r3, r3, r7
 80022bc:	1902      	adds	r2, r0, r4
 80022be:	19d2      	adds	r2, r2, r7
 80022c0:	8812      	ldrh	r2, [r2, #0]
 80022c2:	430a      	orrs	r2, r1
 80022c4:	801a      	strh	r2, [r3, #0]
        huart->Instance->BRR = brrtemp;
 80022c6:	6a7b      	ldr	r3, [r7, #36]	@ 0x24
 80022c8:	681b      	ldr	r3, [r3, #0]
 80022ca:	1902      	adds	r2, r0, r4
 80022cc:	19d2      	adds	r2, r2, r7
 80022ce:	8812      	ldrh	r2, [r2, #0]
 80022d0:	60da      	str	r2, [r3, #12]
 80022d2:	e05e      	b.n	8002392 <UART_SetConfig+0x546>
      }
      else
      {
        ret = HAL_ERROR;
 80022d4:	231a      	movs	r3, #26
 80022d6:	2220      	movs	r2, #32
 80022d8:	189b      	adds	r3, r3, r2
 80022da:	19db      	adds	r3, r3, r7
 80022dc:	2201      	movs	r2, #1
 80022de:	701a      	strb	r2, [r3, #0]
 80022e0:	e057      	b.n	8002392 <UART_SetConfig+0x546>
      }
    }
  }
  else
  {
    switch (clocksource)
 80022e2:	231b      	movs	r3, #27
 80022e4:	2220      	movs	r2, #32
 80022e6:	189b      	adds	r3, r3, r2
 80022e8:	19db      	adds	r3, r3, r7
 80022ea:	781b      	ldrb	r3, [r3, #0]
 80022ec:	2b08      	cmp	r3, #8
 80022ee:	d015      	beq.n	800231c <UART_SetConfig+0x4d0>
 80022f0:	dc18      	bgt.n	8002324 <UART_SetConfig+0x4d8>
 80022f2:	2b04      	cmp	r3, #4
 80022f4:	d00d      	beq.n	8002312 <UART_SetConfig+0x4c6>
 80022f6:	dc15      	bgt.n	8002324 <UART_SetConfig+0x4d8>
 80022f8:	2b00      	cmp	r3, #0
 80022fa:	d002      	beq.n	8002302 <UART_SetConfig+0x4b6>
 80022fc:	2b02      	cmp	r3, #2
 80022fe:	d005      	beq.n	800230c <UART_SetConfig+0x4c0>
 8002300:	e010      	b.n	8002324 <UART_SetConfig+0x4d8>
    {
      case UART_CLOCKSOURCE_PCLK1:
        pclk = HAL_RCC_GetPCLK1Freq();
 8002302:	f7ff fb7f 	bl	8001a04 <HAL_RCC_GetPCLK1Freq>
 8002306:	0003      	movs	r3, r0
 8002308:	637b      	str	r3, [r7, #52]	@ 0x34
        break;
 800230a:	e014      	b.n	8002336 <UART_SetConfig+0x4ea>
      case UART_CLOCKSOURCE_HSI:
        pclk = (uint32_t) HSI_VALUE;
 800230c:	4b2d      	ldr	r3, [pc, #180]	@ (80023c4 <UART_SetConfig+0x578>)
 800230e:	637b      	str	r3, [r7, #52]	@ 0x34
        break;
 8002310:	e011      	b.n	8002336 <UART_SetConfig+0x4ea>
      case UART_CLOCKSOURCE_SYSCLK:
        pclk = HAL_RCC_GetSysClockFreq();
 8002312:	f7ff faeb 	bl	80018ec <HAL_RCC_GetSysClockFreq>
 8002316:	0003      	movs	r3, r0
 8002318:	637b      	str	r3, [r7, #52]	@ 0x34
        break;
 800231a:	e00c      	b.n	8002336 <UART_SetConfig+0x4ea>
      case UART_CLOCKSOURCE_LSE:
        pclk = (uint32_t) LSE_VALUE;
 800231c:	2380      	movs	r3, #128	@ 0x80
 800231e:	021b      	lsls	r3, r3, #8
 8002320:	637b      	str	r3, [r7, #52]	@ 0x34
        break;
 8002322:	e008      	b.n	8002336 <UART_SetConfig+0x4ea>
      default:
        pclk = 0U;
 8002324:	2300      	movs	r3, #0
 8002326:	637b      	str	r3, [r7, #52]	@ 0x34
        ret = HAL_ERROR;
 8002328:	231a      	movs	r3, #26
 800232a:	2220      	movs	r2, #32
 800232c:	189b      	adds	r3, r3, r2
 800232e:	19db      	adds	r3, r3, r7
 8002330:	2201      	movs	r2, #1
 8002332:	701a      	strb	r2, [r3, #0]
        break;
 8002334:	46c0      	nop			@ (mov r8, r8)
    }

    if (pclk != 0U)
 8002336:	6b7b      	ldr	r3, [r7, #52]	@ 0x34
 8002338:	2b00      	cmp	r3, #0
 800233a:	d02a      	beq.n	8002392 <UART_SetConfig+0x546>
    {
      /* USARTDIV must be greater than or equal to 0d16 */
      usartdiv = (uint32_t)(UART_DIV_SAMPLING16(pclk, huart->Init.BaudRate, huart->Init.ClockPrescaler));
 800233c:	6a7b      	ldr	r3, [r7, #36]	@ 0x24
 800233e:	6a5a      	ldr	r2, [r3, #36]	@ 0x24
 8002340:	4b1f      	ldr	r3, [pc, #124]	@ (80023c0 <UART_SetConfig+0x574>)
 8002342:	0052      	lsls	r2, r2, #1
 8002344:	5ad3      	ldrh	r3, [r2, r3]
 8002346:	0019      	movs	r1, r3
 8002348:	6b78      	ldr	r0, [r7, #52]	@ 0x34
 800234a:	f7fd fedb 	bl	8000104 <__udivsi3>
 800234e:	0003      	movs	r3, r0
 8002350:	001a      	movs	r2, r3
 8002352:	6a7b      	ldr	r3, [r7, #36]	@ 0x24
 8002354:	685b      	ldr	r3, [r3, #4]
 8002356:	085b      	lsrs	r3, r3, #1
 8002358:	18d2      	adds	r2, r2, r3
 800235a:	6a7b      	ldr	r3, [r7, #36]	@ 0x24
 800235c:	685b      	ldr	r3, [r3, #4]
 800235e:	0019      	movs	r1, r3
 8002360:	0010      	movs	r0, r2
 8002362:	f7fd fecf 	bl	8000104 <__udivsi3>
 8002366:	0003      	movs	r3, r0
 8002368:	633b      	str	r3, [r7, #48]	@ 0x30
      if ((usartdiv >= UART_BRR_MIN) && (usartdiv <= UART_BRR_MAX))
 800236a:	6b3b      	ldr	r3, [r7, #48]	@ 0x30
 800236c:	2b0f      	cmp	r3, #15
 800236e:	d90a      	bls.n	8002386 <UART_SetConfig+0x53a>
 8002370:	6b3a      	ldr	r2, [r7, #48]	@ 0x30
 8002372:	2380      	movs	r3, #128	@ 0x80
 8002374:	025b      	lsls	r3, r3, #9
 8002376:	429a      	cmp	r2, r3
 8002378:	d205      	bcs.n	8002386 <UART_SetConfig+0x53a>
      {
        huart->Instance->BRR = (uint16_t)usartdiv;
 800237a:	6b3b      	ldr	r3, [r7, #48]	@ 0x30
 800237c:	b29a      	uxth	r2, r3
 800237e:	6a7b      	ldr	r3, [r7, #36]	@ 0x24
 8002380:	681b      	ldr	r3, [r3, #0]
 8002382:	60da      	str	r2, [r3, #12]
 8002384:	e005      	b.n	8002392 <UART_SetConfig+0x546>
      }
      else
      {
        ret = HAL_ERROR;
 8002386:	231a      	movs	r3, #26
 8002388:	2220      	movs	r2, #32
 800238a:	189b      	adds	r3, r3, r2
 800238c:	19db      	adds	r3, r3, r7
 800238e:	2201      	movs	r2, #1
 8002390:	701a      	strb	r2, [r3, #0]
      }
    }
  }

  /* Initialize the number of data to process during RX/TX ISR execution */
  huart->NbTxDataToProcess = 1;
 8002392:	6a7b      	ldr	r3, [r7, #36]	@ 0x24
 8002394:	226a      	movs	r2, #106	@ 0x6a
 8002396:	2101      	movs	r1, #1
 8002398:	5299      	strh	r1, [r3, r2]
  huart->NbRxDataToProcess = 1;
 800239a:	6a7b      	ldr	r3, [r7, #36]	@ 0x24
 800239c:	2268      	movs	r2, #104	@ 0x68
 800239e:	2101      	movs	r1, #1
 80023a0:	5299      	strh	r1, [r3, r2]

  /* Clear ISR function pointers */
  huart->RxISR = NULL;
 80023a2:	6a7b      	ldr	r3, [r7, #36]	@ 0x24
 80023a4:	2200      	movs	r2, #0
 80023a6:	675a      	str	r2, [r3, #116]	@ 0x74
  huart->TxISR = NULL;
 80023a8:	6a7b      	ldr	r3, [r7, #36]	@ 0x24
 80023aa:	2200      	movs	r2, #0
 80023ac:	679a      	str	r2, [r3, #120]	@ 0x78

  return ret;
 80023ae:	231a      	movs	r3, #26
 80023b0:	2220      	movs	r2, #32
 80023b2:	189b      	adds	r3, r3, r2
 80023b4:	19db      	adds	r3, r3, r7
 80023b6:	781b      	ldrb	r3, [r3, #0]
}
 80023b8:	0018      	movs	r0, r3
 80023ba:	46bd      	mov	sp, r7
 80023bc:	b010      	add	sp, #64	@ 0x40
 80023be:	bdb0      	pop	{r4, r5, r7, pc}
 80023c0:	08002b34 	.word	0x08002b34
 80023c4:	00f42400 	.word	0x00f42400

080023c8 <UART_AdvFeatureConfig>:
  * @brief Configure the UART peripheral advanced features.
  * @param huart UART handle.
  * @retval None
  */
void UART_AdvFeatureConfig(UART_HandleTypeDef *huart)
{
 80023c8:	b580      	push	{r7, lr}
 80023ca:	b082      	sub	sp, #8
 80023cc:	af00      	add	r7, sp, #0
 80023ce:	6078      	str	r0, [r7, #4]
  /* Check whether the set of advanced features to configure is properly set */
  assert_param(IS_UART_ADVFEATURE_INIT(huart->AdvancedInit.AdvFeatureInit));

  /* if required, configure RX/TX pins swap */
  if (HAL_IS_BIT_SET(huart->AdvancedInit.AdvFeatureInit, UART_ADVFEATURE_SWAP_INIT))
 80023d0:	687b      	ldr	r3, [r7, #4]
 80023d2:	6a9b      	ldr	r3, [r3, #40]	@ 0x28
 80023d4:	2208      	movs	r2, #8
 80023d6:	4013      	ands	r3, r2
 80023d8:	d00b      	beq.n	80023f2 <UART_AdvFeatureConfig+0x2a>
  {
    assert_param(IS_UART_ADVFEATURE_SWAP(huart->AdvancedInit.Swap));
    MODIFY_REG(huart->Instance->CR2, USART_CR2_SWAP, huart->AdvancedInit.Swap);
 80023da:	687b      	ldr	r3, [r7, #4]
 80023dc:	681b      	ldr	r3, [r3, #0]
 80023de:	685b      	ldr	r3, [r3, #4]
 80023e0:	4a4a      	ldr	r2, [pc, #296]	@ (800250c <UART_AdvFeatureConfig+0x144>)
 80023e2:	4013      	ands	r3, r2
 80023e4:	0019      	movs	r1, r3
 80023e6:	687b      	ldr	r3, [r7, #4]
 80023e8:	6b9a      	ldr	r2, [r3, #56]	@ 0x38
 80023ea:	687b      	ldr	r3, [r7, #4]
 80023ec:	681b      	ldr	r3, [r3, #0]
 80023ee:	430a      	orrs	r2, r1
 80023f0:	605a      	str	r2, [r3, #4]
  }

  /* if required, configure TX pin active level inversion */
  if (HAL_IS_BIT_SET(huart->AdvancedInit.AdvFeatureInit, UART_ADVFEATURE_TXINVERT_INIT))
 80023f2:	687b      	ldr	r3, [r7, #4]
 80023f4:	6a9b      	ldr	r3, [r3, #40]	@ 0x28
 80023f6:	2201      	movs	r2, #1
 80023f8:	4013      	ands	r3, r2
 80023fa:	d00b      	beq.n	8002414 <UART_AdvFeatureConfig+0x4c>
  {
    assert_param(IS_UART_ADVFEATURE_TXINV(huart->AdvancedInit.TxPinLevelInvert));
    MODIFY_REG(huart->Instance->CR2, USART_CR2_TXINV, huart->AdvancedInit.TxPinLevelInvert);
 80023fc:	687b      	ldr	r3, [r7, #4]
 80023fe:	681b      	ldr	r3, [r3, #0]
 8002400:	685b      	ldr	r3, [r3, #4]
 8002402:	4a43      	ldr	r2, [pc, #268]	@ (8002510 <UART_AdvFeatureConfig+0x148>)
 8002404:	4013      	ands	r3, r2
 8002406:	0019      	movs	r1, r3
 8002408:	687b      	ldr	r3, [r7, #4]
 800240a:	6ada      	ldr	r2, [r3, #44]	@ 0x2c
 800240c:	687b      	ldr	r3, [r7, #4]
 800240e:	681b      	ldr	r3, [r3, #0]
 8002410:	430a      	orrs	r2, r1
 8002412:	605a      	str	r2, [r3, #4]
  }

  /* if required, configure RX pin active level inversion */
  if (HAL_IS_BIT_SET(huart->AdvancedInit.AdvFeatureInit, UART_ADVFEATURE_RXINVERT_INIT))
 8002414:	687b      	ldr	r3, [r7, #4]
 8002416:	6a9b      	ldr	r3, [r3, #40]	@ 0x28
 8002418:	2202      	movs	r2, #2
 800241a:	4013      	ands	r3, r2
 800241c:	d00b      	beq.n	8002436 <UART_AdvFeatureConfig+0x6e>
  {
    assert_param(IS_UART_ADVFEATURE_RXINV(huart->AdvancedInit.RxPinLevelInvert));
    MODIFY_REG(huart->Instance->CR2, USART_CR2_RXINV, huart->AdvancedInit.RxPinLevelInvert);
 800241e:	687b      	ldr	r3, [r7, #4]
 8002420:	681b      	ldr	r3, [r3, #0]
 8002422:	685b      	ldr	r3, [r3, #4]
 8002424:	4a3b      	ldr	r2, [pc, #236]	@ (8002514 <UART_AdvFeatureConfig+0x14c>)
 8002426:	4013      	ands	r3, r2
 8002428:	0019      	movs	r1, r3
 800242a:	687b      	ldr	r3, [r7, #4]
 800242c:	6b1a      	ldr	r2, [r3, #48]	@ 0x30
 800242e:	687b      	ldr	r3, [r7, #4]
 8002430:	681b      	ldr	r3, [r3, #0]
 8002432:	430a      	orrs	r2, r1
 8002434:	605a      	str	r2, [r3, #4]
  }

  /* if required, configure data inversion */
  if (HAL_IS_BIT_SET(huart->AdvancedInit.AdvFeatureInit, UART_ADVFEATURE_DATAINVERT_INIT))
 8002436:	687b      	ldr	r3, [r7, #4]
 8002438:	6a9b      	ldr	r3, [r3, #40]	@ 0x28
 800243a:	2204      	movs	r2, #4
 800243c:	4013      	ands	r3, r2
 800243e:	d00b      	beq.n	8002458 <UART_AdvFeatureConfig+0x90>
  {
    assert_param(IS_UART_ADVFEATURE_DATAINV(huart->AdvancedInit.DataInvert));
    MODIFY_REG(huart->Instance->CR2, USART_CR2_DATAINV, huart->AdvancedInit.DataInvert);
 8002440:	687b      	ldr	r3, [r7, #4]
 8002442:	681b      	ldr	r3, [r3, #0]
 8002444:	685b      	ldr	r3, [r3, #4]
 8002446:	4a34      	ldr	r2, [pc, #208]	@ (8002518 <UART_AdvFeatureConfig+0x150>)
 8002448:	4013      	ands	r3, r2
 800244a:	0019      	movs	r1, r3
 800244c:	687b      	ldr	r3, [r7, #4]
 800244e:	6b5a      	ldr	r2, [r3, #52]	@ 0x34
 8002450:	687b      	ldr	r3, [r7, #4]
 8002452:	681b      	ldr	r3, [r3, #0]
 8002454:	430a      	orrs	r2, r1
 8002456:	605a      	str	r2, [r3, #4]
  }

  /* if required, configure RX overrun detection disabling */
  if (HAL_IS_BIT_SET(huart->AdvancedInit.AdvFeatureInit, UART_ADVFEATURE_RXOVERRUNDISABLE_INIT))
 8002458:	687b      	ldr	r3, [r7, #4]
 800245a:	6a9b      	ldr	r3, [r3, #40]	@ 0x28
 800245c:	2210      	movs	r2, #16
 800245e:	4013      	ands	r3, r2
 8002460:	d00b      	beq.n	800247a <UART_AdvFeatureConfig+0xb2>
  {
    assert_param(IS_UART_OVERRUN(huart->AdvancedInit.OverrunDisable));
    MODIFY_REG(huart->Instance->CR3, USART_CR3_OVRDIS, huart->AdvancedInit.OverrunDisable);
 8002462:	687b      	ldr	r3, [r7, #4]
 8002464:	681b      	ldr	r3, [r3, #0]
 8002466:	689b      	ldr	r3, [r3, #8]
 8002468:	4a2c      	ldr	r2, [pc, #176]	@ (800251c <UART_AdvFeatureConfig+0x154>)
 800246a:	4013      	ands	r3, r2
 800246c:	0019      	movs	r1, r3
 800246e:	687b      	ldr	r3, [r7, #4]
 8002470:	6bda      	ldr	r2, [r3, #60]	@ 0x3c
 8002472:	687b      	ldr	r3, [r7, #4]
 8002474:	681b      	ldr	r3, [r3, #0]
 8002476:	430a      	orrs	r2, r1
 8002478:	609a      	str	r2, [r3, #8]
  }

  /* if required, configure DMA disabling on reception error */
  if (HAL_IS_BIT_SET(huart->AdvancedInit.AdvFeatureInit, UART_ADVFEATURE_DMADISABLEONERROR_INIT))
 800247a:	687b      	ldr	r3, [r7, #4]
 800247c:	6a9b      	ldr	r3, [r3, #40]	@ 0x28
 800247e:	2220      	movs	r2, #32
 8002480:	4013      	ands	r3, r2
 8002482:	d00b      	beq.n	800249c <UART_AdvFeatureConfig+0xd4>
  {
    assert_param(IS_UART_ADVFEATURE_DMAONRXERROR(huart->AdvancedInit.DMADisableonRxError));
    MODIFY_REG(huart->Instance->CR3, USART_CR3_DDRE, huart->AdvancedInit.DMADisableonRxError);
 8002484:	687b      	ldr	r3, [r7, #4]
 8002486:	681b      	ldr	r3, [r3, #0]
 8002488:	689b      	ldr	r3, [r3, #8]
 800248a:	4a25      	ldr	r2, [pc, #148]	@ (8002520 <UART_AdvFeatureConfig+0x158>)
 800248c:	4013      	ands	r3, r2
 800248e:	0019      	movs	r1, r3
 8002490:	687b      	ldr	r3, [r7, #4]
 8002492:	6c1a      	ldr	r2, [r3, #64]	@ 0x40
 8002494:	687b      	ldr	r3, [r7, #4]
 8002496:	681b      	ldr	r3, [r3, #0]
 8002498:	430a      	orrs	r2, r1
 800249a:	609a      	str	r2, [r3, #8]
  }

  /* if required, configure auto Baud rate detection scheme */
  if (HAL_IS_BIT_SET(huart->AdvancedInit.AdvFeatureInit, UART_ADVFEATURE_AUTOBAUDRATE_INIT))
 800249c:	687b      	ldr	r3, [r7, #4]
 800249e:	6a9b      	ldr	r3, [r3, #40]	@ 0x28
 80024a0:	2240      	movs	r2, #64	@ 0x40
 80024a2:	4013      	ands	r3, r2
 80024a4:	d01d      	beq.n	80024e2 <UART_AdvFeatureConfig+0x11a>
  {
    assert_param(IS_USART_AUTOBAUDRATE_DETECTION_INSTANCE(huart->Instance));
    assert_param(IS_UART_ADVFEATURE_AUTOBAUDRATE(huart->AdvancedInit.AutoBaudRateEnable));
    MODIFY_REG(huart->Instance->CR2, USART_CR2_ABREN, huart->AdvancedInit.AutoBaudRateEnable);
 80024a6:	687b      	ldr	r3, [r7, #4]
 80024a8:	681b      	ldr	r3, [r3, #0]
 80024aa:	685b      	ldr	r3, [r3, #4]
 80024ac:	4a1d      	ldr	r2, [pc, #116]	@ (8002524 <UART_AdvFeatureConfig+0x15c>)
 80024ae:	4013      	ands	r3, r2
 80024b0:	0019      	movs	r1, r3
 80024b2:	687b      	ldr	r3, [r7, #4]
 80024b4:	6c5a      	ldr	r2, [r3, #68]	@ 0x44
 80024b6:	687b      	ldr	r3, [r7, #4]
 80024b8:	681b      	ldr	r3, [r3, #0]
 80024ba:	430a      	orrs	r2, r1
 80024bc:	605a      	str	r2, [r3, #4]
    /* set auto Baudrate detection parameters if detection is enabled */
    if (huart->AdvancedInit.AutoBaudRateEnable == UART_ADVFEATURE_AUTOBAUDRATE_ENABLE)
 80024be:	687b      	ldr	r3, [r7, #4]
 80024c0:	6c5a      	ldr	r2, [r3, #68]	@ 0x44
 80024c2:	2380      	movs	r3, #128	@ 0x80
 80024c4:	035b      	lsls	r3, r3, #13
 80024c6:	429a      	cmp	r2, r3
 80024c8:	d10b      	bne.n	80024e2 <UART_AdvFeatureConfig+0x11a>
    {
      assert_param(IS_UART_ADVFEATURE_AUTOBAUDRATEMODE(huart->AdvancedInit.AutoBaudRateMode));
      MODIFY_REG(huart->Instance->CR2, USART_CR2_ABRMODE, huart->AdvancedInit.AutoBaudRateMode);
 80024ca:	687b      	ldr	r3, [r7, #4]
 80024cc:	681b      	ldr	r3, [r3, #0]
 80024ce:	685b      	ldr	r3, [r3, #4]
 80024d0:	4a15      	ldr	r2, [pc, #84]	@ (8002528 <UART_AdvFeatureConfig+0x160>)
 80024d2:	4013      	ands	r3, r2
 80024d4:	0019      	movs	r1, r3
 80024d6:	687b      	ldr	r3, [r7, #4]
 80024d8:	6c9a      	ldr	r2, [r3, #72]	@ 0x48
 80024da:	687b      	ldr	r3, [r7, #4]
 80024dc:	681b      	ldr	r3, [r3, #0]
 80024de:	430a      	orrs	r2, r1
 80024e0:	605a      	str	r2, [r3, #4]
    }
  }

  /* if required, configure MSB first on communication line */
  if (HAL_IS_BIT_SET(huart->AdvancedInit.AdvFeatureInit, UART_ADVFEATURE_MSBFIRST_INIT))
 80024e2:	687b      	ldr	r3, [r7, #4]
 80024e4:	6a9b      	ldr	r3, [r3, #40]	@ 0x28
 80024e6:	2280      	movs	r2, #128	@ 0x80
 80024e8:	4013      	ands	r3, r2
 80024ea:	d00b      	beq.n	8002504 <UART_AdvFeatureConfig+0x13c>
  {
    assert_param(IS_UART_ADVFEATURE_MSBFIRST(huart->AdvancedInit.MSBFirst));
    MODIFY_REG(huart->Instance->CR2, USART_CR2_MSBFIRST, huart->AdvancedInit.MSBFirst);
 80024ec:	687b      	ldr	r3, [r7, #4]
 80024ee:	681b      	ldr	r3, [r3, #0]
 80024f0:	685b      	ldr	r3, [r3, #4]
 80024f2:	4a0e      	ldr	r2, [pc, #56]	@ (800252c <UART_AdvFeatureConfig+0x164>)
 80024f4:	4013      	ands	r3, r2
 80024f6:	0019      	movs	r1, r3
 80024f8:	687b      	ldr	r3, [r7, #4]
 80024fa:	6cda      	ldr	r2, [r3, #76]	@ 0x4c
 80024fc:	687b      	ldr	r3, [r7, #4]
 80024fe:	681b      	ldr	r3, [r3, #0]
 8002500:	430a      	orrs	r2, r1
 8002502:	605a      	str	r2, [r3, #4]
  }
}
 8002504:	46c0      	nop			@ (mov r8, r8)
 8002506:	46bd      	mov	sp, r7
 8002508:	b002      	add	sp, #8
 800250a:	bd80      	pop	{r7, pc}
 800250c:	ffff7fff 	.word	0xffff7fff
 8002510:	fffdffff 	.word	0xfffdffff
 8002514:	fffeffff 	.word	0xfffeffff
 8002518:	fffbffff 	.word	0xfffbffff
 800251c:	ffffefff 	.word	0xffffefff
 8002520:	ffffdfff 	.word	0xffffdfff
 8002524:	ffefffff 	.word	0xffefffff
 8002528:	ff9fffff 	.word	0xff9fffff
 800252c:	fff7ffff 	.word	0xfff7ffff

08002530 <UART_CheckIdleState>:
  * @brief Check the UART Idle State.
  * @param huart UART handle.
  * @retval HAL status
  */
HAL_StatusTypeDef UART_CheckIdleState(UART_HandleTypeDef *huart)
{
 8002530:	b580      	push	{r7, lr}
 8002532:	b092      	sub	sp, #72	@ 0x48
 8002534:	af02      	add	r7, sp, #8
 8002536:	6078      	str	r0, [r7, #4]
  uint32_t tickstart;

  /* Initialize the UART ErrorCode */
  huart->ErrorCode = HAL_UART_ERROR_NONE;
 8002538:	687b      	ldr	r3, [r7, #4]
 800253a:	2290      	movs	r2, #144	@ 0x90
 800253c:	2100      	movs	r1, #0
 800253e:	5099      	str	r1, [r3, r2]

  /* Init tickstart for timeout management */
  tickstart = HAL_GetTick();
 8002540:	f7fe fac8 	bl	8000ad4 <HAL_GetTick>
 8002544:	0003      	movs	r3, r0
 8002546:	63fb      	str	r3, [r7, #60]	@ 0x3c

  /* Check if the Transmitter is enabled */
  if ((huart->Instance->CR1 & USART_CR1_TE) == USART_CR1_TE)
 8002548:	687b      	ldr	r3, [r7, #4]
 800254a:	681b      	ldr	r3, [r3, #0]
 800254c:	681b      	ldr	r3, [r3, #0]
 800254e:	2208      	movs	r2, #8
 8002550:	4013      	ands	r3, r2
 8002552:	2b08      	cmp	r3, #8
 8002554:	d12d      	bne.n	80025b2 <UART_CheckIdleState+0x82>
  {
    /* Wait until TEACK flag is set */
    if (UART_WaitOnFlagUntilTimeout(huart, USART_ISR_TEACK, RESET, tickstart, HAL_UART_TIMEOUT_VALUE) != HAL_OK)
 8002556:	6bfb      	ldr	r3, [r7, #60]	@ 0x3c
 8002558:	2280      	movs	r2, #128	@ 0x80
 800255a:	0391      	lsls	r1, r2, #14
 800255c:	6878      	ldr	r0, [r7, #4]
 800255e:	4a47      	ldr	r2, [pc, #284]	@ (800267c <UART_CheckIdleState+0x14c>)
 8002560:	9200      	str	r2, [sp, #0]
 8002562:	2200      	movs	r2, #0
 8002564:	f000 f88e 	bl	8002684 <UART_WaitOnFlagUntilTimeout>
 8002568:	1e03      	subs	r3, r0, #0
 800256a:	d022      	beq.n	80025b2 <UART_CheckIdleState+0x82>
 */
__STATIC_FORCEINLINE uint32_t __get_PRIMASK(void)
{
  uint32_t result;

  __ASM volatile ("MRS %0, primask" : "=r" (result) :: "memory");
 800256c:	f3ef 8310 	mrs	r3, PRIMASK
 8002570:	627b      	str	r3, [r7, #36]	@ 0x24
  return(result);
 8002572:	6a7b      	ldr	r3, [r7, #36]	@ 0x24
    {
      /* Disable TXE interrupt for the interrupt process */
      ATOMIC_CLEAR_BIT(huart->Instance->CR1, (USART_CR1_TXEIE_TXFNFIE));
 8002574:	63bb      	str	r3, [r7, #56]	@ 0x38
 8002576:	2301      	movs	r3, #1
 8002578:	62bb      	str	r3, [r7, #40]	@ 0x28
  \details Assigns the given value to the Priority Mask Register.
  \param [in]    priMask  Priority Mask
 */
__STATIC_FORCEINLINE void __set_PRIMASK(uint32_t priMask)
{
  __ASM volatile ("MSR primask, %0" : : "r" (priMask) : "memory");
 800257a:	6abb      	ldr	r3, [r7, #40]	@ 0x28
 800257c:	f383 8810 	msr	PRIMASK, r3
}
 8002580:	46c0      	nop			@ (mov r8, r8)
 8002582:	687b      	ldr	r3, [r7, #4]
 8002584:	681b      	ldr	r3, [r3, #0]
 8002586:	681a      	ldr	r2, [r3, #0]
 8002588:	687b      	ldr	r3, [r7, #4]
 800258a:	681b      	ldr	r3, [r3, #0]
 800258c:	2180      	movs	r1, #128	@ 0x80
 800258e:	438a      	bics	r2, r1
 8002590:	601a      	str	r2, [r3, #0]
 8002592:	6bbb      	ldr	r3, [r7, #56]	@ 0x38
 8002594:	62fb      	str	r3, [r7, #44]	@ 0x2c
  __ASM volatile ("MSR primask, %0" : : "r" (priMask) : "memory");
 8002596:	6afb      	ldr	r3, [r7, #44]	@ 0x2c
 8002598:	f383 8810 	msr	PRIMASK, r3
}
 800259c:	46c0      	nop			@ (mov r8, r8)

      huart->gState = HAL_UART_STATE_READY;
 800259e:	687b      	ldr	r3, [r7, #4]
 80025a0:	2288      	movs	r2, #136	@ 0x88
 80025a2:	2120      	movs	r1, #32
 80025a4:	5099      	str	r1, [r3, r2]

      __HAL_UNLOCK(huart);
 80025a6:	687b      	ldr	r3, [r7, #4]
 80025a8:	2284      	movs	r2, #132	@ 0x84
 80025aa:	2100      	movs	r1, #0
 80025ac:	5499      	strb	r1, [r3, r2]

      /* Timeout occurred */
      return HAL_TIMEOUT;
 80025ae:	2303      	movs	r3, #3
 80025b0:	e060      	b.n	8002674 <UART_CheckIdleState+0x144>
    }
  }

  /* Check if the Receiver is enabled */
  if ((huart->Instance->CR1 & USART_CR1_RE) == USART_CR1_RE)
 80025b2:	687b      	ldr	r3, [r7, #4]
 80025b4:	681b      	ldr	r3, [r3, #0]
 80025b6:	681b      	ldr	r3, [r3, #0]
 80025b8:	2204      	movs	r2, #4
 80025ba:	4013      	ands	r3, r2
 80025bc:	2b04      	cmp	r3, #4
 80025be:	d146      	bne.n	800264e <UART_CheckIdleState+0x11e>
  {
    /* Wait until REACK flag is set */
    if (UART_WaitOnFlagUntilTimeout(huart, USART_ISR_REACK, RESET, tickstart, HAL_UART_TIMEOUT_VALUE) != HAL_OK)
 80025c0:	6bfb      	ldr	r3, [r7, #60]	@ 0x3c
 80025c2:	2280      	movs	r2, #128	@ 0x80
 80025c4:	03d1      	lsls	r1, r2, #15
 80025c6:	6878      	ldr	r0, [r7, #4]
 80025c8:	4a2c      	ldr	r2, [pc, #176]	@ (800267c <UART_CheckIdleState+0x14c>)
 80025ca:	9200      	str	r2, [sp, #0]
 80025cc:	2200      	movs	r2, #0
 80025ce:	f000 f859 	bl	8002684 <UART_WaitOnFlagUntilTimeout>
 80025d2:	1e03      	subs	r3, r0, #0
 80025d4:	d03b      	beq.n	800264e <UART_CheckIdleState+0x11e>
  __ASM volatile ("MRS %0, primask" : "=r" (result) :: "memory");
 80025d6:	f3ef 8310 	mrs	r3, PRIMASK
 80025da:	60fb      	str	r3, [r7, #12]
  return(result);
 80025dc:	68fb      	ldr	r3, [r7, #12]
    {
      /* Disable RXNE, PE and ERR (Frame error, noise error, overrun error)
      interrupts for the interrupt process */
      ATOMIC_CLEAR_BIT(huart->Instance->CR1, (USART_CR1_RXNEIE_RXFNEIE | USART_CR1_PEIE));
 80025de:	637b      	str	r3, [r7, #52]	@ 0x34
 80025e0:	2301      	movs	r3, #1
 80025e2:	613b      	str	r3, [r7, #16]
  __ASM volatile ("MSR primask, %0" : : "r" (priMask) : "memory");
 80025e4:	693b      	ldr	r3, [r7, #16]
 80025e6:	f383 8810 	msr	PRIMASK, r3
}
 80025ea:	46c0      	nop			@ (mov r8, r8)
 80025ec:	687b      	ldr	r3, [r7, #4]
 80025ee:	681b      	ldr	r3, [r3, #0]
 80025f0:	681a      	ldr	r2, [r3, #0]
 80025f2:	687b      	ldr	r3, [r7, #4]
 80025f4:	681b      	ldr	r3, [r3, #0]
 80025f6:	4922      	ldr	r1, [pc, #136]	@ (8002680 <UART_CheckIdleState+0x150>)
 80025f8:	400a      	ands	r2, r1
 80025fa:	601a      	str	r2, [r3, #0]
 80025fc:	6b7b      	ldr	r3, [r7, #52]	@ 0x34
 80025fe:	617b      	str	r3, [r7, #20]
  __ASM volatile ("MSR primask, %0" : : "r" (priMask) : "memory");
 8002600:	697b      	ldr	r3, [r7, #20]
 8002602:	f383 8810 	msr	PRIMASK, r3
}
 8002606:	46c0      	nop			@ (mov r8, r8)
  __ASM volatile ("MRS %0, primask" : "=r" (result) :: "memory");
 8002608:	f3ef 8310 	mrs	r3, PRIMASK
 800260c:	61bb      	str	r3, [r7, #24]
  return(result);
 800260e:	69bb      	ldr	r3, [r7, #24]
      ATOMIC_CLEAR_BIT(huart->Instance->CR3, USART_CR3_EIE);
 8002610:	633b      	str	r3, [r7, #48]	@ 0x30
 8002612:	2301      	movs	r3, #1
 8002614:	61fb      	str	r3, [r7, #28]
  __ASM volatile ("MSR primask, %0" : : "r" (priMask) : "memory");
 8002616:	69fb      	ldr	r3, [r7, #28]
 8002618:	f383 8810 	msr	PRIMASK, r3
}
 800261c:	46c0      	nop			@ (mov r8, r8)
 800261e:	687b      	ldr	r3, [r7, #4]
 8002620:	681b      	ldr	r3, [r3, #0]
 8002622:	689a      	ldr	r2, [r3, #8]
 8002624:	687b      	ldr	r3, [r7, #4]
 8002626:	681b      	ldr	r3, [r3, #0]
 8002628:	2101      	movs	r1, #1
 800262a:	438a      	bics	r2, r1
 800262c:	609a      	str	r2, [r3, #8]
 800262e:	6b3b      	ldr	r3, [r7, #48]	@ 0x30
 8002630:	623b      	str	r3, [r7, #32]
  __ASM volatile ("MSR primask, %0" : : "r" (priMask) : "memory");
 8002632:	6a3b      	ldr	r3, [r7, #32]
 8002634:	f383 8810 	msr	PRIMASK, r3
}
 8002638:	46c0      	nop			@ (mov r8, r8)

      huart->RxState = HAL_UART_STATE_READY;
 800263a:	687b      	ldr	r3, [r7, #4]
 800263c:	228c      	movs	r2, #140	@ 0x8c
 800263e:	2120      	movs	r1, #32
 8002640:	5099      	str	r1, [r3, r2]

      __HAL_UNLOCK(huart);
 8002642:	687b      	ldr	r3, [r7, #4]
 8002644:	2284      	movs	r2, #132	@ 0x84
 8002646:	2100      	movs	r1, #0
 8002648:	5499      	strb	r1, [r3, r2]

      /* Timeout occurred */
      return HAL_TIMEOUT;
 800264a:	2303      	movs	r3, #3
 800264c:	e012      	b.n	8002674 <UART_CheckIdleState+0x144>
    }
  }

  /* Initialize the UART State */
  huart->gState = HAL_UART_STATE_READY;
 800264e:	687b      	ldr	r3, [r7, #4]
 8002650:	2288      	movs	r2, #136	@ 0x88
 8002652:	2120      	movs	r1, #32
 8002654:	5099      	str	r1, [r3, r2]
  huart->RxState = HAL_UART_STATE_READY;
 8002656:	687b      	ldr	r3, [r7, #4]
 8002658:	228c      	movs	r2, #140	@ 0x8c
 800265a:	2120      	movs	r1, #32
 800265c:	5099      	str	r1, [r3, r2]
  huart->ReceptionType = HAL_UART_RECEPTION_STANDARD;
 800265e:	687b      	ldr	r3, [r7, #4]
 8002660:	2200      	movs	r2, #0
 8002662:	66da      	str	r2, [r3, #108]	@ 0x6c
  huart->RxEventType = HAL_UART_RXEVENT_TC;
 8002664:	687b      	ldr	r3, [r7, #4]
 8002666:	2200      	movs	r2, #0
 8002668:	671a      	str	r2, [r3, #112]	@ 0x70

  __HAL_UNLOCK(huart);
 800266a:	687b      	ldr	r3, [r7, #4]
 800266c:	2284      	movs	r2, #132	@ 0x84
 800266e:	2100      	movs	r1, #0
 8002670:	5499      	strb	r1, [r3, r2]

  return HAL_OK;
 8002672:	2300      	movs	r3, #0
}
 8002674:	0018      	movs	r0, r3
 8002676:	46bd      	mov	sp, r7
 8002678:	b010      	add	sp, #64	@ 0x40
 800267a:	bd80      	pop	{r7, pc}
 800267c:	01ffffff 	.word	0x01ffffff
 8002680:	fffffedf 	.word	0xfffffedf

08002684 <UART_WaitOnFlagUntilTimeout>:
  * @param Timeout   Timeout duration
  * @retval HAL status
  */
HAL_StatusTypeDef UART_WaitOnFlagUntilTimeout(UART_HandleTypeDef *huart, uint32_t Flag, FlagStatus Status,
                                              uint32_t Tickstart, uint32_t Timeout)
{
 8002684:	b580      	push	{r7, lr}
 8002686:	b084      	sub	sp, #16
 8002688:	af00      	add	r7, sp, #0
 800268a:	60f8      	str	r0, [r7, #12]
 800268c:	60b9      	str	r1, [r7, #8]
 800268e:	603b      	str	r3, [r7, #0]
 8002690:	1dfb      	adds	r3, r7, #7
 8002692:	701a      	strb	r2, [r3, #0]
  /* Wait until flag is set */
  while ((__HAL_UART_GET_FLAG(huart, Flag) ? SET : RESET) == Status)
 8002694:	e051      	b.n	800273a <UART_WaitOnFlagUntilTimeout+0xb6>
  {
    /* Check for the Timeout */
    if (Timeout != HAL_MAX_DELAY)
 8002696:	69bb      	ldr	r3, [r7, #24]
 8002698:	3301      	adds	r3, #1
 800269a:	d04e      	beq.n	800273a <UART_WaitOnFlagUntilTimeout+0xb6>
    {
      if (((HAL_GetTick() - Tickstart) > Timeout) || (Timeout == 0U))
 800269c:	f7fe fa1a 	bl	8000ad4 <HAL_GetTick>
 80026a0:	0002      	movs	r2, r0
 80026a2:	683b      	ldr	r3, [r7, #0]
 80026a4:	1ad3      	subs	r3, r2, r3
 80026a6:	69ba      	ldr	r2, [r7, #24]
 80026a8:	429a      	cmp	r2, r3
 80026aa:	d302      	bcc.n	80026b2 <UART_WaitOnFlagUntilTimeout+0x2e>
 80026ac:	69bb      	ldr	r3, [r7, #24]
 80026ae:	2b00      	cmp	r3, #0
 80026b0:	d101      	bne.n	80026b6 <UART_WaitOnFlagUntilTimeout+0x32>
      {

        return HAL_TIMEOUT;
 80026b2:	2303      	movs	r3, #3
 80026b4:	e051      	b.n	800275a <UART_WaitOnFlagUntilTimeout+0xd6>
      }

      if ((READ_BIT(huart->Instance->CR1, USART_CR1_RE) != 0U) && (Flag != UART_FLAG_TXE) && (Flag != UART_FLAG_TC))
 80026b6:	68fb      	ldr	r3, [r7, #12]
 80026b8:	681b      	ldr	r3, [r3, #0]
 80026ba:	681b      	ldr	r3, [r3, #0]
 80026bc:	2204      	movs	r2, #4
 80026be:	4013      	ands	r3, r2
 80026c0:	d03b      	beq.n	800273a <UART_WaitOnFlagUntilTimeout+0xb6>
 80026c2:	68bb      	ldr	r3, [r7, #8]
 80026c4:	2b80      	cmp	r3, #128	@ 0x80
 80026c6:	d038      	beq.n	800273a <UART_WaitOnFlagUntilTimeout+0xb6>
 80026c8:	68bb      	ldr	r3, [r7, #8]
 80026ca:	2b40      	cmp	r3, #64	@ 0x40
 80026cc:	d035      	beq.n	800273a <UART_WaitOnFlagUntilTimeout+0xb6>
      {
        if (__HAL_UART_GET_FLAG(huart, UART_FLAG_ORE) == SET)
 80026ce:	68fb      	ldr	r3, [r7, #12]
 80026d0:	681b      	ldr	r3, [r3, #0]
 80026d2:	69db      	ldr	r3, [r3, #28]
 80026d4:	2208      	movs	r2, #8
 80026d6:	4013      	ands	r3, r2
 80026d8:	2b08      	cmp	r3, #8
 80026da:	d111      	bne.n	8002700 <UART_WaitOnFlagUntilTimeout+0x7c>
        {
          /* Clear Overrun Error flag*/
          __HAL_UART_CLEAR_FLAG(huart, UART_CLEAR_OREF);
 80026dc:	68fb      	ldr	r3, [r7, #12]
 80026de:	681b      	ldr	r3, [r3, #0]
 80026e0:	2208      	movs	r2, #8
 80026e2:	621a      	str	r2, [r3, #32]

          /* Blocking error : transfer is aborted
          Set the UART state ready to be able to start again the process,
          Disable Rx Interrupts if ongoing */
          UART_EndRxTransfer(huart);
 80026e4:	68fb      	ldr	r3, [r7, #12]
 80026e6:	0018      	movs	r0, r3
 80026e8:	f000 f83c 	bl	8002764 <UART_EndRxTransfer>

          huart->ErrorCode = HAL_UART_ERROR_ORE;
 80026ec:	68fb      	ldr	r3, [r7, #12]
 80026ee:	2290      	movs	r2, #144	@ 0x90
 80026f0:	2108      	movs	r1, #8
 80026f2:	5099      	str	r1, [r3, r2]

          /* Process Unlocked */
          __HAL_UNLOCK(huart);
 80026f4:	68fb      	ldr	r3, [r7, #12]
 80026f6:	2284      	movs	r2, #132	@ 0x84
 80026f8:	2100      	movs	r1, #0
 80026fa:	5499      	strb	r1, [r3, r2]

          return HAL_ERROR;
 80026fc:	2301      	movs	r3, #1
 80026fe:	e02c      	b.n	800275a <UART_WaitOnFlagUntilTimeout+0xd6>
        }
        if (__HAL_UART_GET_FLAG(huart, UART_FLAG_RTOF) == SET)
 8002700:	68fb      	ldr	r3, [r7, #12]
 8002702:	681b      	ldr	r3, [r3, #0]
 8002704:	69da      	ldr	r2, [r3, #28]
 8002706:	2380      	movs	r3, #128	@ 0x80
 8002708:	011b      	lsls	r3, r3, #4
 800270a:	401a      	ands	r2, r3
 800270c:	2380      	movs	r3, #128	@ 0x80
 800270e:	011b      	lsls	r3, r3, #4
 8002710:	429a      	cmp	r2, r3
 8002712:	d112      	bne.n	800273a <UART_WaitOnFlagUntilTimeout+0xb6>
        {
          /* Clear Receiver Timeout flag*/
          __HAL_UART_CLEAR_FLAG(huart, UART_CLEAR_RTOF);
 8002714:	68fb      	ldr	r3, [r7, #12]
 8002716:	681b      	ldr	r3, [r3, #0]
 8002718:	2280      	movs	r2, #128	@ 0x80
 800271a:	0112      	lsls	r2, r2, #4
 800271c:	621a      	str	r2, [r3, #32]

          /* Blocking error : transfer is aborted
          Set the UART state ready to be able to start again the process,
          Disable Rx Interrupts if ongoing */
          UART_EndRxTransfer(huart);
 800271e:	68fb      	ldr	r3, [r7, #12]
 8002720:	0018      	movs	r0, r3
 8002722:	f000 f81f 	bl	8002764 <UART_EndRxTransfer>

          huart->ErrorCode = HAL_UART_ERROR_RTO;
 8002726:	68fb      	ldr	r3, [r7, #12]
 8002728:	2290      	movs	r2, #144	@ 0x90
 800272a:	2120      	movs	r1, #32
 800272c:	5099      	str	r1, [r3, r2]

          /* Process Unlocked */
          __HAL_UNLOCK(huart);
 800272e:	68fb      	ldr	r3, [r7, #12]
 8002730:	2284      	movs	r2, #132	@ 0x84
 8002732:	2100      	movs	r1, #0
 8002734:	5499      	strb	r1, [r3, r2]

          return HAL_TIMEOUT;
 8002736:	2303      	movs	r3, #3
 8002738:	e00f      	b.n	800275a <UART_WaitOnFlagUntilTimeout+0xd6>
  while ((__HAL_UART_GET_FLAG(huart, Flag) ? SET : RESET) == Status)
 800273a:	68fb      	ldr	r3, [r7, #12]
 800273c:	681b      	ldr	r3, [r3, #0]
 800273e:	69db      	ldr	r3, [r3, #28]
 8002740:	68ba      	ldr	r2, [r7, #8]
 8002742:	4013      	ands	r3, r2
 8002744:	68ba      	ldr	r2, [r7, #8]
 8002746:	1ad3      	subs	r3, r2, r3
 8002748:	425a      	negs	r2, r3
 800274a:	4153      	adcs	r3, r2
 800274c:	b2db      	uxtb	r3, r3
 800274e:	001a      	movs	r2, r3
 8002750:	1dfb      	adds	r3, r7, #7
 8002752:	781b      	ldrb	r3, [r3, #0]
 8002754:	429a      	cmp	r2, r3
 8002756:	d09e      	beq.n	8002696 <UART_WaitOnFlagUntilTimeout+0x12>
        }
      }
    }
  }
  return HAL_OK;
 8002758:	2300      	movs	r3, #0
}
 800275a:	0018      	movs	r0, r3
 800275c:	46bd      	mov	sp, r7
 800275e:	b004      	add	sp, #16
 8002760:	bd80      	pop	{r7, pc}
	...

08002764 <UART_EndRxTransfer>:
  * @brief  End ongoing Rx transfer on UART peripheral (following error detection or Reception completion).
  * @param  huart UART handle.
  * @retval None
  */
static void UART_EndRxTransfer(UART_HandleTypeDef *huart)
{
 8002764:	b580      	push	{r7, lr}
 8002766:	b08e      	sub	sp, #56	@ 0x38
 8002768:	af00      	add	r7, sp, #0
 800276a:	6078      	str	r0, [r7, #4]
  __ASM volatile ("MRS %0, primask" : "=r" (result) :: "memory");
 800276c:	f3ef 8310 	mrs	r3, PRIMASK
 8002770:	617b      	str	r3, [r7, #20]
  return(result);
 8002772:	697b      	ldr	r3, [r7, #20]
  /* Disable RXNE, PE and ERR (Frame error, noise error, overrun error) interrupts */
  ATOMIC_CLEAR_BIT(huart->Instance->CR1, (USART_CR1_RXNEIE_RXFNEIE | USART_CR1_PEIE));
 8002774:	637b      	str	r3, [r7, #52]	@ 0x34
 8002776:	2301      	movs	r3, #1
 8002778:	61bb      	str	r3, [r7, #24]
  __ASM volatile ("MSR primask, %0" : : "r" (priMask) : "memory");
 800277a:	69bb      	ldr	r3, [r7, #24]
 800277c:	f383 8810 	msr	PRIMASK, r3
}
 8002780:	46c0      	nop			@ (mov r8, r8)
 8002782:	687b      	ldr	r3, [r7, #4]
 8002784:	681b      	ldr	r3, [r3, #0]
 8002786:	681a      	ldr	r2, [r3, #0]
 8002788:	687b      	ldr	r3, [r7, #4]
 800278a:	681b      	ldr	r3, [r3, #0]
 800278c:	4926      	ldr	r1, [pc, #152]	@ (8002828 <UART_EndRxTransfer+0xc4>)
 800278e:	400a      	ands	r2, r1
 8002790:	601a      	str	r2, [r3, #0]
 8002792:	6b7b      	ldr	r3, [r7, #52]	@ 0x34
 8002794:	61fb      	str	r3, [r7, #28]
  __ASM volatile ("MSR primask, %0" : : "r" (priMask) : "memory");
 8002796:	69fb      	ldr	r3, [r7, #28]
 8002798:	f383 8810 	msr	PRIMASK, r3
}
 800279c:	46c0      	nop			@ (mov r8, r8)
  __ASM volatile ("MRS %0, primask" : "=r" (result) :: "memory");
 800279e:	f3ef 8310 	mrs	r3, PRIMASK
 80027a2:	623b      	str	r3, [r7, #32]
  return(result);
 80027a4:	6a3b      	ldr	r3, [r7, #32]
  ATOMIC_CLEAR_BIT(huart->Instance->CR3, (USART_CR3_EIE | USART_CR3_RXFTIE));
 80027a6:	633b      	str	r3, [r7, #48]	@ 0x30
 80027a8:	2301      	movs	r3, #1
 80027aa:	627b      	str	r3, [r7, #36]	@ 0x24
  __ASM volatile ("MSR primask, %0" : : "r" (priMask) : "memory");
 80027ac:	6a7b      	ldr	r3, [r7, #36]	@ 0x24
 80027ae:	f383 8810 	msr	PRIMASK, r3
}
 80027b2:	46c0      	nop			@ (mov r8, r8)
 80027b4:	687b      	ldr	r3, [r7, #4]
 80027b6:	681b      	ldr	r3, [r3, #0]
 80027b8:	689a      	ldr	r2, [r3, #8]
 80027ba:	687b      	ldr	r3, [r7, #4]
 80027bc:	681b      	ldr	r3, [r3, #0]
 80027be:	491b      	ldr	r1, [pc, #108]	@ (800282c <UART_EndRxTransfer+0xc8>)
 80027c0:	400a      	ands	r2, r1
 80027c2:	609a      	str	r2, [r3, #8]
 80027c4:	6b3b      	ldr	r3, [r7, #48]	@ 0x30
 80027c6:	62bb      	str	r3, [r7, #40]	@ 0x28
  __ASM volatile ("MSR primask, %0" : : "r" (priMask) : "memory");
 80027c8:	6abb      	ldr	r3, [r7, #40]	@ 0x28
 80027ca:	f383 8810 	msr	PRIMASK, r3
}
 80027ce:	46c0      	nop			@ (mov r8, r8)

  /* In case of reception waiting for IDLE event, disable also the IDLE IE interrupt source */
  if (huart->ReceptionType == HAL_UART_RECEPTION_TOIDLE)
 80027d0:	687b      	ldr	r3, [r7, #4]
 80027d2:	6edb      	ldr	r3, [r3, #108]	@ 0x6c
 80027d4:	2b01      	cmp	r3, #1
 80027d6:	d118      	bne.n	800280a <UART_EndRxTransfer+0xa6>
  __ASM volatile ("MRS %0, primask" : "=r" (result) :: "memory");
 80027d8:	f3ef 8310 	mrs	r3, PRIMASK
 80027dc:	60bb      	str	r3, [r7, #8]
  return(result);
 80027de:	68bb      	ldr	r3, [r7, #8]
  {
    ATOMIC_CLEAR_BIT(huart->Instance->CR1, USART_CR1_IDLEIE);
 80027e0:	62fb      	str	r3, [r7, #44]	@ 0x2c
 80027e2:	2301      	movs	r3, #1
 80027e4:	60fb      	str	r3, [r7, #12]
  __ASM volatile ("MSR primask, %0" : : "r" (priMask) : "memory");
 80027e6:	68fb      	ldr	r3, [r7, #12]
 80027e8:	f383 8810 	msr	PRIMASK, r3
}
 80027ec:	46c0      	nop			@ (mov r8, r8)
 80027ee:	687b      	ldr	r3, [r7, #4]
 80027f0:	681b      	ldr	r3, [r3, #0]
 80027f2:	681a      	ldr	r2, [r3, #0]
 80027f4:	687b      	ldr	r3, [r7, #4]
 80027f6:	681b      	ldr	r3, [r3, #0]
 80027f8:	2110      	movs	r1, #16
 80027fa:	438a      	bics	r2, r1
 80027fc:	601a      	str	r2, [r3, #0]
 80027fe:	6afb      	ldr	r3, [r7, #44]	@ 0x2c
 8002800:	613b      	str	r3, [r7, #16]
  __ASM volatile ("MSR primask, %0" : : "r" (priMask) : "memory");
 8002802:	693b      	ldr	r3, [r7, #16]
 8002804:	f383 8810 	msr	PRIMASK, r3
}
 8002808:	46c0      	nop			@ (mov r8, r8)
  }

  /* At end of Rx process, restore huart->RxState to Ready */
  huart->RxState = HAL_UART_STATE_READY;
 800280a:	687b      	ldr	r3, [r7, #4]
 800280c:	228c      	movs	r2, #140	@ 0x8c
 800280e:	2120      	movs	r1, #32
 8002810:	5099      	str	r1, [r3, r2]
  huart->ReceptionType = HAL_UART_RECEPTION_STANDARD;
 8002812:	687b      	ldr	r3, [r7, #4]
 8002814:	2200      	movs	r2, #0
 8002816:	66da      	str	r2, [r3, #108]	@ 0x6c

  /* Reset RxIsr function pointer */
  huart->RxISR = NULL;
 8002818:	687b      	ldr	r3, [r7, #4]
 800281a:	2200      	movs	r2, #0
 800281c:	675a      	str	r2, [r3, #116]	@ 0x74
}
 800281e:	46c0      	nop			@ (mov r8, r8)
 8002820:	46bd      	mov	sp, r7
 8002822:	b00e      	add	sp, #56	@ 0x38
 8002824:	bd80      	pop	{r7, pc}
 8002826:	46c0      	nop			@ (mov r8, r8)
 8002828:	fffffedf 	.word	0xfffffedf
 800282c:	effffffe 	.word	0xeffffffe

08002830 <HAL_UARTEx_DisableFifoMode>:
  * @brief  Disable the FIFO mode.
  * @param huart      UART handle.
  * @retval HAL status
  */
HAL_StatusTypeDef HAL_UARTEx_DisableFifoMode(UART_HandleTypeDef *huart)
{
 8002830:	b580      	push	{r7, lr}
 8002832:	b084      	sub	sp, #16
 8002834:	af00      	add	r7, sp, #0
 8002836:	6078      	str	r0, [r7, #4]

  /* Check parameters */
  assert_param(IS_UART_FIFO_INSTANCE(huart->Instance));

  /* Process Locked */
  __HAL_LOCK(huart);
 8002838:	687b      	ldr	r3, [r7, #4]
 800283a:	2284      	movs	r2, #132	@ 0x84
 800283c:	5c9b      	ldrb	r3, [r3, r2]
 800283e:	2b01      	cmp	r3, #1
 8002840:	d101      	bne.n	8002846 <HAL_UARTEx_DisableFifoMode+0x16>
 8002842:	2302      	movs	r3, #2
 8002844:	e027      	b.n	8002896 <HAL_UARTEx_DisableFifoMode+0x66>
 8002846:	687b      	ldr	r3, [r7, #4]
 8002848:	2284      	movs	r2, #132	@ 0x84
 800284a:	2101      	movs	r1, #1
 800284c:	5499      	strb	r1, [r3, r2]

  huart->gState = HAL_UART_STATE_BUSY;
 800284e:	687b      	ldr	r3, [r7, #4]
 8002850:	2288      	movs	r2, #136	@ 0x88
 8002852:	2124      	movs	r1, #36	@ 0x24
 8002854:	5099      	str	r1, [r3, r2]

  /* Save actual UART configuration */
  tmpcr1 = READ_REG(huart->Instance->CR1);
 8002856:	687b      	ldr	r3, [r7, #4]
 8002858:	681b      	ldr	r3, [r3, #0]
 800285a:	681b      	ldr	r3, [r3, #0]
 800285c:	60fb      	str	r3, [r7, #12]

  /* Disable UART */
  __HAL_UART_DISABLE(huart);
 800285e:	687b      	ldr	r3, [r7, #4]
 8002860:	681b      	ldr	r3, [r3, #0]
 8002862:	681a      	ldr	r2, [r3, #0]
 8002864:	687b      	ldr	r3, [r7, #4]
 8002866:	681b      	ldr	r3, [r3, #0]
 8002868:	2101      	movs	r1, #1
 800286a:	438a      	bics	r2, r1
 800286c:	601a      	str	r2, [r3, #0]

  /* Enable FIFO mode */
  CLEAR_BIT(tmpcr1, USART_CR1_FIFOEN);
 800286e:	68fb      	ldr	r3, [r7, #12]
 8002870:	4a0b      	ldr	r2, [pc, #44]	@ (80028a0 <HAL_UARTEx_DisableFifoMode+0x70>)
 8002872:	4013      	ands	r3, r2
 8002874:	60fb      	str	r3, [r7, #12]
  huart->FifoMode = UART_FIFOMODE_DISABLE;
 8002876:	687b      	ldr	r3, [r7, #4]
 8002878:	2200      	movs	r2, #0
 800287a:	665a      	str	r2, [r3, #100]	@ 0x64

  /* Restore UART configuration */
  WRITE_REG(huart->Instance->CR1, tmpcr1);
 800287c:	687b      	ldr	r3, [r7, #4]
 800287e:	681b      	ldr	r3, [r3, #0]
 8002880:	68fa      	ldr	r2, [r7, #12]
 8002882:	601a      	str	r2, [r3, #0]

  huart->gState = HAL_UART_STATE_READY;
 8002884:	687b      	ldr	r3, [r7, #4]
 8002886:	2288      	movs	r2, #136	@ 0x88
 8002888:	2120      	movs	r1, #32
 800288a:	5099      	str	r1, [r3, r2]

  /* Process Unlocked */
  __HAL_UNLOCK(huart);
 800288c:	687b      	ldr	r3, [r7, #4]
 800288e:	2284      	movs	r2, #132	@ 0x84
 8002890:	2100      	movs	r1, #0
 8002892:	5499      	strb	r1, [r3, r2]

  return HAL_OK;
 8002894:	2300      	movs	r3, #0
}
 8002896:	0018      	movs	r0, r3
 8002898:	46bd      	mov	sp, r7
 800289a:	b004      	add	sp, #16
 800289c:	bd80      	pop	{r7, pc}
 800289e:	46c0      	nop			@ (mov r8, r8)
 80028a0:	dfffffff 	.word	0xdfffffff

080028a4 <HAL_UARTEx_SetTxFifoThreshold>:
  *            @arg @ref UART_TXFIFO_THRESHOLD_7_8
  *            @arg @ref UART_TXFIFO_THRESHOLD_8_8
  * @retval HAL status
  */
HAL_StatusTypeDef HAL_UARTEx_SetTxFifoThreshold(UART_HandleTypeDef *huart, uint32_t Threshold)
{
 80028a4:	b580      	push	{r7, lr}
 80028a6:	b084      	sub	sp, #16
 80028a8:	af00      	add	r7, sp, #0
 80028aa:	6078      	str	r0, [r7, #4]
 80028ac:	6039      	str	r1, [r7, #0]
  /* Check parameters */
  assert_param(IS_UART_FIFO_INSTANCE(huart->Instance));
  assert_param(IS_UART_TXFIFO_THRESHOLD(Threshold));

  /* Process Locked */
  __HAL_LOCK(huart);
 80028ae:	687b      	ldr	r3, [r7, #4]
 80028b0:	2284      	movs	r2, #132	@ 0x84
 80028b2:	5c9b      	ldrb	r3, [r3, r2]
 80028b4:	2b01      	cmp	r3, #1
 80028b6:	d101      	bne.n	80028bc <HAL_UARTEx_SetTxFifoThreshold+0x18>
 80028b8:	2302      	movs	r3, #2
 80028ba:	e02e      	b.n	800291a <HAL_UARTEx_SetTxFifoThreshold+0x76>
 80028bc:	687b      	ldr	r3, [r7, #4]
 80028be:	2284      	movs	r2, #132	@ 0x84
 80028c0:	2101      	movs	r1, #1
 80028c2:	5499      	strb	r1, [r3, r2]

  huart->gState = HAL_UART_STATE_BUSY;
 80028c4:	687b      	ldr	r3, [r7, #4]
 80028c6:	2288      	movs	r2, #136	@ 0x88
 80028c8:	2124      	movs	r1, #36	@ 0x24
 80028ca:	5099      	str	r1, [r3, r2]

  /* Save actual UART configuration */
  tmpcr1 = READ_REG(huart->Instance->CR1);
 80028cc:	687b      	ldr	r3, [r7, #4]
 80028ce:	681b      	ldr	r3, [r3, #0]
 80028d0:	681b      	ldr	r3, [r3, #0]
 80028d2:	60fb      	str	r3, [r7, #12]

  /* Disable UART */
  __HAL_UART_DISABLE(huart);
 80028d4:	687b      	ldr	r3, [r7, #4]
 80028d6:	681b      	ldr	r3, [r3, #0]
 80028d8:	681a      	ldr	r2, [r3, #0]
 80028da:	687b      	ldr	r3, [r7, #4]
 80028dc:	681b      	ldr	r3, [r3, #0]
 80028de:	2101      	movs	r1, #1
 80028e0:	438a      	bics	r2, r1
 80028e2:	601a      	str	r2, [r3, #0]

  /* Update TX threshold configuration */
  MODIFY_REG(huart->Instance->CR3, USART_CR3_TXFTCFG, Threshold);
 80028e4:	687b      	ldr	r3, [r7, #4]
 80028e6:	681b      	ldr	r3, [r3, #0]
 80028e8:	689b      	ldr	r3, [r3, #8]
 80028ea:	00db      	lsls	r3, r3, #3
 80028ec:	08d9      	lsrs	r1, r3, #3
 80028ee:	687b      	ldr	r3, [r7, #4]
 80028f0:	681b      	ldr	r3, [r3, #0]
 80028f2:	683a      	ldr	r2, [r7, #0]
 80028f4:	430a      	orrs	r2, r1
 80028f6:	609a      	str	r2, [r3, #8]

  /* Determine the number of data to process during RX/TX ISR execution */
  UARTEx_SetNbDataToProcess(huart);
 80028f8:	687b      	ldr	r3, [r7, #4]
 80028fa:	0018      	movs	r0, r3
 80028fc:	f000 f854 	bl	80029a8 <UARTEx_SetNbDataToProcess>

  /* Restore UART configuration */
  WRITE_REG(huart->Instance->CR1, tmpcr1);
 8002900:	687b      	ldr	r3, [r7, #4]
 8002902:	681b      	ldr	r3, [r3, #0]
 8002904:	68fa      	ldr	r2, [r7, #12]
 8002906:	601a      	str	r2, [r3, #0]

  huart->gState = HAL_UART_STATE_READY;
 8002908:	687b      	ldr	r3, [r7, #4]
 800290a:	2288      	movs	r2, #136	@ 0x88
 800290c:	2120      	movs	r1, #32
 800290e:	5099      	str	r1, [r3, r2]

  /* Process Unlocked */
  __HAL_UNLOCK(huart);
 8002910:	687b      	ldr	r3, [r7, #4]
 8002912:	2284      	movs	r2, #132	@ 0x84
 8002914:	2100      	movs	r1, #0
 8002916:	5499      	strb	r1, [r3, r2]

  return HAL_OK;
 8002918:	2300      	movs	r3, #0
}
 800291a:	0018      	movs	r0, r3
 800291c:	46bd      	mov	sp, r7
 800291e:	b004      	add	sp, #16
 8002920:	bd80      	pop	{r7, pc}
	...

08002924 <HAL_UARTEx_SetRxFifoThreshold>:
  *            @arg @ref UART_RXFIFO_THRESHOLD_7_8
  *            @arg @ref UART_RXFIFO_THRESHOLD_8_8
  * @retval HAL status
  */
HAL_StatusTypeDef HAL_UARTEx_SetRxFifoThreshold(UART_HandleTypeDef *huart, uint32_t Threshold)
{
 8002924:	b580      	push	{r7, lr}
 8002926:	b084      	sub	sp, #16
 8002928:	af00      	add	r7, sp, #0
 800292a:	6078      	str	r0, [r7, #4]
 800292c:	6039      	str	r1, [r7, #0]
  /* Check the parameters */
  assert_param(IS_UART_FIFO_INSTANCE(huart->Instance));
  assert_param(IS_UART_RXFIFO_THRESHOLD(Threshold));

  /* Process Locked */
  __HAL_LOCK(huart);
 800292e:	687b      	ldr	r3, [r7, #4]
 8002930:	2284      	movs	r2, #132	@ 0x84
 8002932:	5c9b      	ldrb	r3, [r3, r2]
 8002934:	2b01      	cmp	r3, #1
 8002936:	d101      	bne.n	800293c <HAL_UARTEx_SetRxFifoThreshold+0x18>
 8002938:	2302      	movs	r3, #2
 800293a:	e02f      	b.n	800299c <HAL_UARTEx_SetRxFifoThreshold+0x78>
 800293c:	687b      	ldr	r3, [r7, #4]
 800293e:	2284      	movs	r2, #132	@ 0x84
 8002940:	2101      	movs	r1, #1
 8002942:	5499      	strb	r1, [r3, r2]

  huart->gState = HAL_UART_STATE_BUSY;
 8002944:	687b      	ldr	r3, [r7, #4]
 8002946:	2288      	movs	r2, #136	@ 0x88
 8002948:	2124      	movs	r1, #36	@ 0x24
 800294a:	5099      	str	r1, [r3, r2]

  /* Save actual UART configuration */
  tmpcr1 = READ_REG(huart->Instance->CR1);
 800294c:	687b      	ldr	r3, [r7, #4]
 800294e:	681b      	ldr	r3, [r3, #0]
 8002950:	681b      	ldr	r3, [r3, #0]
 8002952:	60fb      	str	r3, [r7, #12]

  /* Disable UART */
  __HAL_UART_DISABLE(huart);
 8002954:	687b      	ldr	r3, [r7, #4]
 8002956:	681b      	ldr	r3, [r3, #0]
 8002958:	681a      	ldr	r2, [r3, #0]
 800295a:	687b      	ldr	r3, [r7, #4]
 800295c:	681b      	ldr	r3, [r3, #0]
 800295e:	2101      	movs	r1, #1
 8002960:	438a      	bics	r2, r1
 8002962:	601a      	str	r2, [r3, #0]

  /* Update RX threshold configuration */
  MODIFY_REG(huart->Instance->CR3, USART_CR3_RXFTCFG, Threshold);
 8002964:	687b      	ldr	r3, [r7, #4]
 8002966:	681b      	ldr	r3, [r3, #0]
 8002968:	689b      	ldr	r3, [r3, #8]
 800296a:	4a0e      	ldr	r2, [pc, #56]	@ (80029a4 <HAL_UARTEx_SetRxFifoThreshold+0x80>)
 800296c:	4013      	ands	r3, r2
 800296e:	0019      	movs	r1, r3
 8002970:	687b      	ldr	r3, [r7, #4]
 8002972:	681b      	ldr	r3, [r3, #0]
 8002974:	683a      	ldr	r2, [r7, #0]
 8002976:	430a      	orrs	r2, r1
 8002978:	609a      	str	r2, [r3, #8]

  /* Determine the number of data to process during RX/TX ISR execution */
  UARTEx_SetNbDataToProcess(huart);
 800297a:	687b      	ldr	r3, [r7, #4]
 800297c:	0018      	movs	r0, r3
 800297e:	f000 f813 	bl	80029a8 <UARTEx_SetNbDataToProcess>

  /* Restore UART configuration */
  WRITE_REG(huart->Instance->CR1, tmpcr1);
 8002982:	687b      	ldr	r3, [r7, #4]
 8002984:	681b      	ldr	r3, [r3, #0]
 8002986:	68fa      	ldr	r2, [r7, #12]
 8002988:	601a      	str	r2, [r3, #0]

  huart->gState = HAL_UART_STATE_READY;
 800298a:	687b      	ldr	r3, [r7, #4]
 800298c:	2288      	movs	r2, #136	@ 0x88
 800298e:	2120      	movs	r1, #32
 8002990:	5099      	str	r1, [r3, r2]

  /* Process Unlocked */
  __HAL_UNLOCK(huart);
 8002992:	687b      	ldr	r3, [r7, #4]
 8002994:	2284      	movs	r2, #132	@ 0x84
 8002996:	2100      	movs	r1, #0
 8002998:	5499      	strb	r1, [r3, r2]

  return HAL_OK;
 800299a:	2300      	movs	r3, #0
}
 800299c:	0018      	movs	r0, r3
 800299e:	46bd      	mov	sp, r7
 80029a0:	b004      	add	sp, #16
 80029a2:	bd80      	pop	{r7, pc}
 80029a4:	f1ffffff 	.word	0xf1ffffff

080029a8 <UARTEx_SetNbDataToProcess>:
  *       the UART configuration registers.
  * @param huart UART handle.
  * @retval None
  */
static void UARTEx_SetNbDataToProcess(UART_HandleTypeDef *huart)
{
 80029a8:	b5f0      	push	{r4, r5, r6, r7, lr}
 80029aa:	b085      	sub	sp, #20
 80029ac:	af00      	add	r7, sp, #0
 80029ae:	6078      	str	r0, [r7, #4]
  uint8_t rx_fifo_threshold;
  uint8_t tx_fifo_threshold;
  static const uint8_t numerator[] = {1U, 1U, 1U, 3U, 7U, 1U, 0U, 0U};
  static const uint8_t denominator[] = {8U, 4U, 2U, 4U, 8U, 1U, 1U, 1U};

  if (huart->FifoMode == UART_FIFOMODE_DISABLE)
 80029b0:	687b      	ldr	r3, [r7, #4]
 80029b2:	6e5b      	ldr	r3, [r3, #100]	@ 0x64
 80029b4:	2b00      	cmp	r3, #0
 80029b6:	d108      	bne.n	80029ca <UARTEx_SetNbDataToProcess+0x22>
  {
    huart->NbTxDataToProcess = 1U;
 80029b8:	687b      	ldr	r3, [r7, #4]
 80029ba:	226a      	movs	r2, #106	@ 0x6a
 80029bc:	2101      	movs	r1, #1
 80029be:	5299      	strh	r1, [r3, r2]
    huart->NbRxDataToProcess = 1U;
 80029c0:	687b      	ldr	r3, [r7, #4]
 80029c2:	2268      	movs	r2, #104	@ 0x68
 80029c4:	2101      	movs	r1, #1
 80029c6:	5299      	strh	r1, [r3, r2]
    huart->NbTxDataToProcess = ((uint16_t)tx_fifo_depth * numerator[tx_fifo_threshold]) /
                               (uint16_t)denominator[tx_fifo_threshold];
    huart->NbRxDataToProcess = ((uint16_t)rx_fifo_depth * numerator[rx_fifo_threshold]) /
                               (uint16_t)denominator[rx_fifo_threshold];
  }
}
 80029c8:	e043      	b.n	8002a52 <UARTEx_SetNbDataToProcess+0xaa>
    rx_fifo_depth = RX_FIFO_DEPTH;
 80029ca:	260f      	movs	r6, #15
 80029cc:	19bb      	adds	r3, r7, r6
 80029ce:	2208      	movs	r2, #8
 80029d0:	701a      	strb	r2, [r3, #0]
    tx_fifo_depth = TX_FIFO_DEPTH;
 80029d2:	200e      	movs	r0, #14
 80029d4:	183b      	adds	r3, r7, r0
 80029d6:	2208      	movs	r2, #8
 80029d8:	701a      	strb	r2, [r3, #0]
    rx_fifo_threshold = (uint8_t)(READ_BIT(huart->Instance->CR3, USART_CR3_RXFTCFG) >> USART_CR3_RXFTCFG_Pos);
 80029da:	687b      	ldr	r3, [r7, #4]
 80029dc:	681b      	ldr	r3, [r3, #0]
 80029de:	689b      	ldr	r3, [r3, #8]
 80029e0:	0e5b      	lsrs	r3, r3, #25
 80029e2:	b2da      	uxtb	r2, r3
 80029e4:	240d      	movs	r4, #13
 80029e6:	193b      	adds	r3, r7, r4
 80029e8:	2107      	movs	r1, #7
 80029ea:	400a      	ands	r2, r1
 80029ec:	701a      	strb	r2, [r3, #0]
    tx_fifo_threshold = (uint8_t)(READ_BIT(huart->Instance->CR3, USART_CR3_TXFTCFG) >> USART_CR3_TXFTCFG_Pos);
 80029ee:	687b      	ldr	r3, [r7, #4]
 80029f0:	681b      	ldr	r3, [r3, #0]
 80029f2:	689b      	ldr	r3, [r3, #8]
 80029f4:	0f5b      	lsrs	r3, r3, #29
 80029f6:	b2da      	uxtb	r2, r3
 80029f8:	250c      	movs	r5, #12
 80029fa:	197b      	adds	r3, r7, r5
 80029fc:	2107      	movs	r1, #7
 80029fe:	400a      	ands	r2, r1
 8002a00:	701a      	strb	r2, [r3, #0]
    huart->NbTxDataToProcess = ((uint16_t)tx_fifo_depth * numerator[tx_fifo_threshold]) /
 8002a02:	183b      	adds	r3, r7, r0
 8002a04:	781b      	ldrb	r3, [r3, #0]
 8002a06:	197a      	adds	r2, r7, r5
 8002a08:	7812      	ldrb	r2, [r2, #0]
 8002a0a:	4914      	ldr	r1, [pc, #80]	@ (8002a5c <UARTEx_SetNbDataToProcess+0xb4>)
 8002a0c:	5c8a      	ldrb	r2, [r1, r2]
 8002a0e:	435a      	muls	r2, r3
 8002a10:	0010      	movs	r0, r2
                               (uint16_t)denominator[tx_fifo_threshold];
 8002a12:	197b      	adds	r3, r7, r5
 8002a14:	781b      	ldrb	r3, [r3, #0]
 8002a16:	4a12      	ldr	r2, [pc, #72]	@ (8002a60 <UARTEx_SetNbDataToProcess+0xb8>)
 8002a18:	5cd3      	ldrb	r3, [r2, r3]
    huart->NbTxDataToProcess = ((uint16_t)tx_fifo_depth * numerator[tx_fifo_threshold]) /
 8002a1a:	0019      	movs	r1, r3
 8002a1c:	f7fd fbfc 	bl	8000218 <__divsi3>
 8002a20:	0003      	movs	r3, r0
 8002a22:	b299      	uxth	r1, r3
 8002a24:	687b      	ldr	r3, [r7, #4]
 8002a26:	226a      	movs	r2, #106	@ 0x6a
 8002a28:	5299      	strh	r1, [r3, r2]
    huart->NbRxDataToProcess = ((uint16_t)rx_fifo_depth * numerator[rx_fifo_threshold]) /
 8002a2a:	19bb      	adds	r3, r7, r6
 8002a2c:	781b      	ldrb	r3, [r3, #0]
 8002a2e:	193a      	adds	r2, r7, r4
 8002a30:	7812      	ldrb	r2, [r2, #0]
 8002a32:	490a      	ldr	r1, [pc, #40]	@ (8002a5c <UARTEx_SetNbDataToProcess+0xb4>)
 8002a34:	5c8a      	ldrb	r2, [r1, r2]
 8002a36:	435a      	muls	r2, r3
 8002a38:	0010      	movs	r0, r2
                               (uint16_t)denominator[rx_fifo_threshold];
 8002a3a:	193b      	adds	r3, r7, r4
 8002a3c:	781b      	ldrb	r3, [r3, #0]
 8002a3e:	4a08      	ldr	r2, [pc, #32]	@ (8002a60 <UARTEx_SetNbDataToProcess+0xb8>)
 8002a40:	5cd3      	ldrb	r3, [r2, r3]
    huart->NbRxDataToProcess = ((uint16_t)rx_fifo_depth * numerator[rx_fifo_threshold]) /
 8002a42:	0019      	movs	r1, r3
 8002a44:	f7fd fbe8 	bl	8000218 <__divsi3>
 8002a48:	0003      	movs	r3, r0
 8002a4a:	b299      	uxth	r1, r3
 8002a4c:	687b      	ldr	r3, [r7, #4]
 8002a4e:	2268      	movs	r2, #104	@ 0x68
 8002a50:	5299      	strh	r1, [r3, r2]
}
 8002a52:	46c0      	nop			@ (mov r8, r8)
 8002a54:	46bd      	mov	sp, r7
 8002a56:	b005      	add	sp, #20
 8002a58:	bdf0      	pop	{r4, r5, r6, r7, pc}
 8002a5a:	46c0      	nop			@ (mov r8, r8)
 8002a5c:	08002b4c 	.word	0x08002b4c
 8002a60:	08002b54 	.word	0x08002b54

08002a64 <memset>:
 8002a64:	0003      	movs	r3, r0
 8002a66:	1882      	adds	r2, r0, r2
 8002a68:	4293      	cmp	r3, r2
 8002a6a:	d100      	bne.n	8002a6e <memset+0xa>
 8002a6c:	4770      	bx	lr
 8002a6e:	7019      	strb	r1, [r3, #0]
 8002a70:	3301      	adds	r3, #1
 8002a72:	e7f9      	b.n	8002a68 <memset+0x4>

08002a74 <__libc_init_array>:
 8002a74:	b570      	push	{r4, r5, r6, lr}
 8002a76:	2600      	movs	r6, #0
 8002a78:	4c0c      	ldr	r4, [pc, #48]	@ (8002aac <__libc_init_array+0x38>)
 8002a7a:	4d0d      	ldr	r5, [pc, #52]	@ (8002ab0 <__libc_init_array+0x3c>)
 8002a7c:	1b64      	subs	r4, r4, r5
 8002a7e:	10a4      	asrs	r4, r4, #2
 8002a80:	42a6      	cmp	r6, r4
 8002a82:	d109      	bne.n	8002a98 <__libc_init_array+0x24>
 8002a84:	2600      	movs	r6, #0
 8002a86:	f000 f819 	bl	8002abc <_init>
 8002a8a:	4c0a      	ldr	r4, [pc, #40]	@ (8002ab4 <__libc_init_array+0x40>)
 8002a8c:	4d0a      	ldr	r5, [pc, #40]	@ (8002ab8 <__libc_init_array+0x44>)
 8002a8e:	1b64      	subs	r4, r4, r5
 8002a90:	10a4      	asrs	r4, r4, #2
 8002a92:	42a6      	cmp	r6, r4
 8002a94:	d105      	bne.n	8002aa2 <__libc_init_array+0x2e>
 8002a96:	bd70      	pop	{r4, r5, r6, pc}
 8002a98:	00b3      	lsls	r3, r6, #2
 8002a9a:	58eb      	ldr	r3, [r5, r3]
 8002a9c:	4798      	blx	r3
 8002a9e:	3601      	adds	r6, #1
 8002aa0:	e7ee      	b.n	8002a80 <__libc_init_array+0xc>
 8002aa2:	00b3      	lsls	r3, r6, #2
 8002aa4:	58eb      	ldr	r3, [r5, r3]
 8002aa6:	4798      	blx	r3
 8002aa8:	3601      	adds	r6, #1
 8002aaa:	e7f2      	b.n	8002a92 <__libc_init_array+0x1e>
 8002aac:	08002b64 	.word	0x08002b64
 8002ab0:	08002b64 	.word	0x08002b64
 8002ab4:	08002b68 	.word	0x08002b68
 8002ab8:	08002b64 	.word	0x08002b64

08002abc <_init>:
 8002abc:	b5f8      	push	{r3, r4, r5, r6, r7, lr}
 8002abe:	46c0      	nop			@ (mov r8, r8)
 8002ac0:	bcf8      	pop	{r3, r4, r5, r6, r7}
 8002ac2:	bc08      	pop	{r3}
 8002ac4:	469e      	mov	lr, r3
 8002ac6:	4770      	bx	lr

08002ac8 <_fini>:
 8002ac8:	b5f8      	push	{r3, r4, r5, r6, r7, lr}
 8002aca:	46c0      	nop			@ (mov r8, r8)
 8002acc:	bcf8      	pop	{r3, r4, r5, r6, r7}
 8002ace:	bc08      	pop	{r3}
 8002ad0:	469e      	mov	lr, r3
 8002ad2:	4770      	bx	lr
